---
triple:          'arm64-apple-darwin'
binary-path:     '/Users/ericwu/Documents/GitHub/CS340_Final_Project/test'
relocations:
  - { offsetInCU: 0xB606, offset: 0xB606, size: 0x8, addend: 0x0, symName: __ZNSt3__17advanceB7v160006IP10MemoryItemmmvEEvRT_T0_, symObjAddr: 0xEAEC, symBinAddr: 0x100012D7C, symSize: 0x50 }
  - { offsetInCU: 0xBA5A, offset: 0xBA5A, size: 0x8, addend: 0x0, symName: __ZNSt3__124__put_character_sequenceB7v160006IcNS_11char_traitsIcEEEERNS_13basic_ostreamIT_T0_EES7_PKS4_m, symObjAddr: 0x11570, symBinAddr: 0x100015800, symSize: 0x1EC }
  - { offsetInCU: 0xE63C, offset: 0xE63C, size: 0x8, addend: 0x0, symName: __ZNSt3__1neB7v160006IP10MemoryItemEEbRKNS_11__wrap_iterIT_EES7_, symObjAddr: 0x22A4, symBinAddr: 0x100006534, symSize: 0x34 }
  - { offsetInCU: 0xE67F, offset: 0xE67F, size: 0x8, addend: 0x0, symName: __ZNSt3__1lsB7v160006INS_11char_traitsIcEEEERNS_13basic_ostreamIcT_EES6_PKc, symObjAddr: 0x2C84, symBinAddr: 0x100006F14, symSize: 0x48 }
  - { offsetInCU: 0xE6C5, offset: 0xE6C5, size: 0x8, addend: 0x0, symName: __ZNSt3__14endlB7v160006IcNS_11char_traitsIcEEEERNS_13basic_ostreamIT_T0_EES7_, symObjAddr: 0x2CF8, symBinAddr: 0x100006F88, symSize: 0x58 }
  - { offsetInCU: 0xE705, offset: 0xE705, size: 0x8, addend: 0x0, symName: __ZNSt3__1eqB7v160006IP10MemoryItemEEbRKNS_11__wrap_iterIT_EES7_, symObjAddr: 0x2EB4, symBinAddr: 0x100007144, symSize: 0x48 }
  - { offsetInCU: 0xE748, offset: 0xE748, size: 0x8, addend: 0x0, symName: __ZNSt3__112__to_addressB7v160006I10MemoryItemEEPT_S3_, symObjAddr: 0x2F14, symBinAddr: 0x1000071A4, symSize: 0x14 }
  - { offsetInCU: 0xE77D, offset: 0xE77D, size: 0x8, addend: 0x0, symName: __ZNSt3__118__debug_db_erase_cB7v160006INS_6vectorI11DiskManagerNS_9allocatorIS2_EEEEEEvPT_, symObjAddr: 0x3264, symBinAddr: 0x1000074F4, symSize: 0x10 }
  - { offsetInCU: 0xE7AE, offset: 0xE7AE, size: 0x8, addend: 0x0, symName: __ZNSt3__112__to_addressB7v160006I11DiskManagerEEPT_S3_, symObjAddr: 0x3398, symBinAddr: 0x100007628, symSize: 0x14 }
  - { offsetInCU: 0xE7E3, offset: 0xE7E3, size: 0x8, addend: 0x0, symName: __ZNSt3__119__libcpp_deallocateB7v160006EPvmm, symObjAddr: 0x34B8, symBinAddr: 0x100007748, symSize: 0x30 }
  - { offsetInCU: 0xE82B, offset: 0xE82B, size: 0x8, addend: 0x0, symName: __ZNSt3__127__do_deallocate_handle_sizeB7v160006IJEEEvPvmDpT_, symObjAddr: 0x34E8, symBinAddr: 0x100007778, symSize: 0x28 }
  - { offsetInCU: 0xE869, offset: 0xE869, size: 0x8, addend: 0x0, symName: __ZNSt3__124__libcpp_operator_deleteB7v160006IJPvEEEvDpT_, symObjAddr: 0x3510, symBinAddr: 0x1000077A0, symSize: 0x24 }
  - { offsetInCU: 0xE89E, offset: 0xE89E, size: 0x8, addend: 0x0, symName: __ZNSt3__119__debug_db_insert_cB7v160006INS_6vectorI7ProcessNS_9allocatorIS2_EEEEEEvPT_, symObjAddr: 0x3980, symBinAddr: 0x100007C10, symSize: 0x10 }
  - { offsetInCU: 0xE8CF, offset: 0xE8CF, size: 0x8, addend: 0x0, symName: __ZNSt3__1neB7v160006ERKNS_16__deque_iteratorIiPiRiPS1_lLl1024EEES6_, symObjAddr: 0x3EA0, symBinAddr: 0x100008130, symSize: 0x34 }
  - { offsetInCU: 0xE90C, offset: 0xE90C, size: 0x8, addend: 0x0, symName: __ZNSt3__1eqB7v160006ERKNS_16__deque_iteratorIiPiRiPS1_lLl1024EEES6_, symObjAddr: 0x40AC, symBinAddr: 0x10000833C, symSize: 0x30 }
  - { offsetInCU: 0xE949, offset: 0xE949, size: 0x8, addend: 0x0, symName: __ZNSt3__112__to_addressB7v160006IPiEEPT_S3_, symObjAddr: 0x4414, symBinAddr: 0x1000086A4, symSize: 0x14 }
  - { offsetInCU: 0xE97E, offset: 0xE97E, size: 0x8, addend: 0x0, symName: __ZNSt3__118__debug_db_erase_cB7v160006INS_6vectorI7ProcessNS_9allocatorIS2_EEEEEEvPT_, symObjAddr: 0x4700, symBinAddr: 0x100008990, symSize: 0x10 }
  - { offsetInCU: 0xE9AF, offset: 0xE9AF, size: 0x8, addend: 0x0, symName: __ZNSt3__112__to_addressB7v160006I7ProcessEEPT_S3_, symObjAddr: 0x481C, symBinAddr: 0x100008AAC, symSize: 0x14 }
  - { offsetInCU: 0xE9E4, offset: 0xE9E4, size: 0x8, addend: 0x0, symName: __ZNSt3__13maxB7v160006ImEERKT_S3_S3_, symObjAddr: 0x5624, symBinAddr: 0x1000098B4, symSize: 0x2C }
  - { offsetInCU: 0xEE80, offset: 0xEE80, size: 0x8, addend: 0x0, symName: __ZNSt3__14swapB7v160006IPPiEENS_9enable_ifIXaasr21is_move_constructibleIT_EE5valuesr18is_move_assignableIS4_EE5valueEvE4typeERS4_S7_, symObjAddr: 0x5C38, symBinAddr: 0x100009EC8, symSize: 0x3C }
  - { offsetInCU: 0xEED1, offset: 0xEED1, size: 0x8, addend: 0x0, symName: __ZNSt3__113move_backwardB7v160006IPPiS2_EET0_T_S4_S3_, symObjAddr: 0x5D7C, symBinAddr: 0x10000A00C, symSize: 0x40 }
  - { offsetInCU: 0xEF2B, offset: 0xEF2B, size: 0x8, addend: 0x0, symName: __ZNSt3__115__move_backwardB7v160006INS_17_ClassicAlgPolicyEPPiS3_S3_EENS_4pairIT0_T2_EES5_T1_S6_, symObjAddr: 0x5F20, symBinAddr: 0x10000A1B0, symSize: 0x44 }
  - { offsetInCU: 0xEF97, offset: 0xEF97, size: 0x8, addend: 0x0, symName: __ZNSt3__123__dispatch_copy_or_moveB7v160006INS_17_ClassicAlgPolicyENS_20__move_backward_loopIS1_EENS_23__move_backward_trivialEPPiS6_S6_EENS_4pairIT2_T4_EES8_T3_S9_, symObjAddr: 0x5F64, symBinAddr: 0x10000A1F4, symSize: 0x44 }
  - { offsetInCU: 0xF015, offset: 0xF015, size: 0x8, addend: 0x0, symName: __ZNSt3__121__unwrap_and_dispatchB7v160006INS_10__overloadINS_20__move_backward_loopINS_17_ClassicAlgPolicyEEENS_23__move_backward_trivialEEEPPiS8_S8_Li0EEENS_4pairIT0_T2_EESA_T1_SB_, symObjAddr: 0x5FA8, symBinAddr: 0x10000A238, symSize: 0xB4 }
  - { offsetInCU: 0xF0A3, offset: 0xF0A3, size: 0x8, addend: 0x0, symName: __ZNSt3__114__unwrap_rangeB7v160006IPPiS2_EENS_4pairIT0_S4_EET_S6_, symObjAddr: 0x605C, symBinAddr: 0x10000A2EC, symSize: 0x60 }
  - { offsetInCU: 0xF2A3, offset: 0xF2A3, size: 0x8, addend: 0x0, symName: __ZNSt3__113__unwrap_iterB7v160006IPPiNS_18__unwrap_iter_implIS2_Lb1EEELi0EEEDTclsrT0_8__unwrapclsr3stdE7declvalIT_EEEES6_, symObjAddr: 0x6104, symBinAddr: 0x10000A394, symSize: 0x24 }
  - { offsetInCU: 0xF2E7, offset: 0xF2E7, size: 0x8, addend: 0x0, symName: __ZNSt3__19make_pairB7v160006IPPiS2_EENS_4pairINS_18__unwrap_ref_decayIT_E4typeENS4_IT0_E4typeEEEOS5_OS8_, symObjAddr: 0x6128, symBinAddr: 0x10000A3B8, symSize: 0x38 }
  - { offsetInCU: 0xF336, offset: 0xF336, size: 0x8, addend: 0x0, symName: __ZNSt3__114__rewrap_rangeB7v160006IPPiS2_EET_S3_T0_, symObjAddr: 0x6160, symBinAddr: 0x10000A3F0, symSize: 0x2C }
  - { offsetInCU: 0xF382, offset: 0xF382, size: 0x8, addend: 0x0, symName: __ZNSt3__113__rewrap_iterB7v160006IPPiS2_NS_18__unwrap_iter_implIS2_Lb1EEEEET_S5_T0_, symObjAddr: 0x618C, symBinAddr: 0x10000A41C, symSize: 0x3C }
  - { offsetInCU: 0xF3D7, offset: 0xF3D7, size: 0x8, addend: 0x0, symName: __ZNSt3__128__copy_backward_trivial_implB7v160006IPiS1_EENS_4pairIPT_PT0_EES4_S4_S6_, symObjAddr: 0x61C8, symBinAddr: 0x10000A458, symSize: 0x94 }
  - { offsetInCU: 0xF43F, offset: 0xF43F, size: 0x8, addend: 0x0, symName: __ZNSt3__19make_pairB7v160006IRPPiS3_EENS_4pairINS_18__unwrap_ref_decayIT_E4typeENS5_IT0_E4typeEEEOS6_OS9_, symObjAddr: 0x625C, symBinAddr: 0x10000A4EC, symSize: 0x38 }
  - { offsetInCU: 0xF4E1, offset: 0xF4E1, size: 0x8, addend: 0x0, symName: __ZNSt3__18distanceB7v160006INS_13move_iteratorIPPiEEEENS_15iterator_traitsIT_E15difference_typeES6_S6_, symObjAddr: 0x63E8, symBinAddr: 0x10000A678, symSize: 0x3C }
  - { offsetInCU: 0xF524, offset: 0xF524, size: 0x8, addend: 0x0, symName: __ZNSt3__110__distanceB7v160006INS_13move_iteratorIPPiEEEENS_15iterator_traitsIT_E15difference_typeES6_S6_NS_26random_access_iterator_tagE, symObjAddr: 0x6520, symBinAddr: 0x10000A7B0, symSize: 0x30 }
  - { offsetInCU: 0xF571, offset: 0xF571, size: 0x8, addend: 0x0, symName: __ZNSt3__1miB7v160006IPPiS2_EEDTmicldtfp_4baseEcldtfp0_4baseEERKNS_13move_iteratorIT_EERKNS4_IT0_EE, symObjAddr: 0x6550, symBinAddr: 0x10000A7E0, symSize: 0x48 }
  - { offsetInCU: 0xF5C0, offset: 0xF5C0, size: 0x8, addend: 0x0, symName: __ZNSt3__117__libcpp_allocateB7v160006Emm, symObjAddr: 0x6774, symBinAddr: 0x10000AA04, symSize: 0x28 }
  - { offsetInCU: 0xF5FD, offset: 0xF5FD, size: 0x8, addend: 0x0, symName: __ZNSt3__121__libcpp_operator_newB7v160006IJmEEEPvDpT_, symObjAddr: 0x67B0, symBinAddr: 0x10000AA40, symSize: 0x24 }
  - { offsetInCU: 0xF636, offset: 0xF636, size: 0x8, addend: 0x0, symName: __ZNSt3__14moveB7v160006IPPiS2_EET0_T_S4_S3_, symObjAddr: 0x67D4, symBinAddr: 0x10000AA64, symSize: 0x40 }
  - { offsetInCU: 0xF690, offset: 0xF690, size: 0x8, addend: 0x0, symName: __ZNSt3__16__moveB7v160006INS_17_ClassicAlgPolicyEPPiS3_S3_EENS_4pairIT0_T2_EES5_T1_S6_, symObjAddr: 0x6814, symBinAddr: 0x10000AAA4, symSize: 0x44 }
  - { offsetInCU: 0xF6FC, offset: 0xF6FC, size: 0x8, addend: 0x0, symName: __ZNSt3__123__dispatch_copy_or_moveB7v160006INS_17_ClassicAlgPolicyENS_11__move_loopIS1_EENS_14__move_trivialEPPiS6_S6_EENS_4pairIT2_T4_EES8_T3_S9_, symObjAddr: 0x6858, symBinAddr: 0x10000AAE8, symSize: 0x44 }
  - { offsetInCU: 0xF77A, offset: 0xF77A, size: 0x8, addend: 0x0, symName: __ZNSt3__121__unwrap_and_dispatchB7v160006INS_10__overloadINS_11__move_loopINS_17_ClassicAlgPolicyEEENS_14__move_trivialEEEPPiS8_S8_Li0EEENS_4pairIT0_T2_EESA_T1_SB_, symObjAddr: 0x689C, symBinAddr: 0x10000AB2C, symSize: 0xB4 }
  - { offsetInCU: 0xF8C6, offset: 0xF8C6, size: 0x8, addend: 0x0, symName: __ZNSt3__119__copy_trivial_implB7v160006IPiS1_EENS_4pairIPT_PT0_EES4_S4_S6_, symObjAddr: 0x6998, symBinAddr: 0x10000AC28, symSize: 0x84 }
  - { offsetInCU: 0xF92E, offset: 0xF92E, size: 0x8, addend: 0x0, symName: __ZNSt3__19make_pairB7v160006IRPPiS2_EENS_4pairINS_18__unwrap_ref_decayIT_E4typeENS5_IT0_E4typeEEEOS6_OS9_, symObjAddr: 0x6A1C, symBinAddr: 0x10000ACAC, symSize: 0x38 }
  - { offsetInCU: 0xF97D, offset: 0xF97D, size: 0x8, addend: 0x0, symName: __ZNSt3__13maxB7v160006ImNS_6__lessImmEEEERKT_S5_S5_T0_, symObjAddr: 0x6AC4, symBinAddr: 0x10000AD54, symSize: 0x54 }
  - { offsetInCU: 0xFA12, offset: 0xFA12, size: 0x8, addend: 0x0, symName: __ZNSt3__119__allocate_at_leastB7v160006INS_9allocatorIPiEEEENS_19__allocation_resultINS_16allocator_traitsIT_E7pointerEEERS6_m, symObjAddr: 0x6C5C, symBinAddr: 0x10000AEEC, symSize: 0x40 }
  - { offsetInCU: 0xFA55, offset: 0xFA55, size: 0x8, addend: 0x0, symName: __ZNSt3__18distanceB7v160006INS_16__deque_iteratorIiPKiRS2_PKS3_lLl1024EEEEENS_15iterator_traitsIT_E15difference_typeES9_S9_, symObjAddr: 0x7A34, symBinAddr: 0x10000BCC4, symSize: 0x4C }
  - { offsetInCU: 0xFA98, offset: 0xFA98, size: 0x8, addend: 0x0, symName: __ZNSt3__1neB7v160006ERKNS_5dequeIiNS_9allocatorIiEEE13__deque_rangeES6_, symObjAddr: 0x8138, symBinAddr: 0x10000C3C8, symSize: 0x34 }
  - { offsetInCU: 0xFAD5, offset: 0xFAD5, size: 0x8, addend: 0x0, symName: __ZNSt3__112__to_addressB7v160006IiEEPT_S2_, symObjAddr: 0x8224, symBinAddr: 0x10000C4B4, symSize: 0x14 }
  - { offsetInCU: 0xFB0A, offset: 0xFB0A, size: 0x8, addend: 0x0, symName: __ZNSt3__110__distanceB7v160006INS_16__deque_iteratorIiPKiRS2_PKS3_lLl1024EEEEENS_15iterator_traitsIT_E15difference_typeES9_S9_NS_26random_access_iterator_tagE, symObjAddr: 0x8350, symBinAddr: 0x10000C5E0, symSize: 0x38 }
  - { offsetInCU: 0xFB57, offset: 0xFB57, size: 0x8, addend: 0x0, symName: __ZNSt3__1miB7v160006ERKNS_16__deque_iteratorIiPKiRS1_PKS2_lLl1024EEES8_, symObjAddr: 0x8388, symBinAddr: 0x10000C618, symSize: 0xA8 }
  - { offsetInCU: 0xFB94, offset: 0xFB94, size: 0x8, addend: 0x0, symName: __ZNSt3__1neB7v160006ERKNS_16__deque_iteratorIiPKiRS1_PKS2_lLl1024EEES8_, symObjAddr: 0x8430, symBinAddr: 0x10000C6C0, symSize: 0x34 }
  - { offsetInCU: 0xFBD1, offset: 0xFBD1, size: 0x8, addend: 0x0, symName: __ZNSt3__1eqB7v160006ERKNS_16__deque_iteratorIiPKiRS1_PKS2_lLl1024EEES8_, symObjAddr: 0x8464, symBinAddr: 0x10000C6F4, symSize: 0x30 }
  - { offsetInCU: 0xFC0E, offset: 0xFC0E, size: 0x8, addend: 0x0, symName: __ZNSt3__13minB7v160006ImEERKT_S3_S3_, symObjAddr: 0x84D4, symBinAddr: 0x10000C764, symSize: 0x2C }
  - { offsetInCU: 0xFC51, offset: 0xFC51, size: 0x8, addend: 0x0, symName: __ZNSt3__13minB7v160006ImNS_6__lessImmEEEERKT_S5_S5_T0_, symObjAddr: 0x8A2C, symBinAddr: 0x10000CCBC, symSize: 0x54 }
  - { offsetInCU: 0xFCAB, offset: 0xFCAB, size: 0x8, addend: 0x0, symName: __ZNSt3__1eqB7v160006ERKNS_5dequeIiNS_9allocatorIiEEE13__deque_rangeES6_, symObjAddr: 0x8BC4, symBinAddr: 0x10000CE54, symSize: 0x30 }
  - { offsetInCU: 0xFEE9, offset: 0xFEE9, size: 0x8, addend: 0x0, symName: __ZNSt3__120__throw_length_errorB7v160006EPKc, symObjAddr: 0x974C, symBinAddr: 0x10000D9DC, symSize: 0x64 }
  - { offsetInCU: 0xFF11, offset: 0xFF11, size: 0x8, addend: 0x0, symName: __ZNSt3__119__allocate_at_leastB7v160006INS_9allocatorI7ProcessEEEENS_19__allocation_resultINS_16allocator_traitsIT_E7pointerEEERS6_m, symObjAddr: 0x9940, symBinAddr: 0x10000DBD0, symSize: 0x40 }
  - { offsetInCU: 0xFF54, offset: 0xFF54, size: 0x8, addend: 0x0, symName: __ZNSt3__142__uninitialized_allocator_move_if_noexceptB7v160006INS_9allocatorI7ProcessEENS_16reverse_iteratorIPS2_EES6_S6_EET2_RT_T0_T1_S7_, symObjAddr: 0x9AF4, symBinAddr: 0x10000DD84, symSize: 0x12C }
  - { offsetInCU: 0xFFF4, offset: 0xFFF4, size: 0x8, addend: 0x0, symName: __ZNSt3__14swapB7v160006IP7ProcessEENS_9enable_ifIXaasr21is_move_constructibleIT_EE5valuesr18is_move_assignableIS4_EE5valueEvE4typeERS4_S7_, symObjAddr: 0x9C6C, symBinAddr: 0x10000DEFC, symSize: 0x3C }
  - { offsetInCU: 0x10045, offset: 0x10045, size: 0x8, addend: 0x0, symName: __ZNSt3__125__debug_db_invalidate_allB7v160006INS_6vectorI7ProcessNS_9allocatorIS2_EEEEEEvPT_, symObjAddr: 0x9D54, symBinAddr: 0x10000DFE4, symSize: 0x10 }
  - { offsetInCU: 0x10076, offset: 0x10076, size: 0x8, addend: 0x0, symName: __ZNSt3__122__make_exception_guardB7v160006INS_29_AllocatorDestroyRangeReverseINS_9allocatorI7ProcessEENS_16reverse_iteratorIPS3_EEEEEENS_28__exception_guard_exceptionsIT_EESA_, symObjAddr: 0x9D64, symBinAddr: 0x10000DFF4, symSize: 0x4C }
  - { offsetInCU: 0x100AC, offset: 0x100AC, size: 0x8, addend: 0x0, symName: __ZNSt3__1neB7v160006IP7ProcessS2_EEbRKNS_16reverse_iteratorIT_EERKNS3_IT0_EE, symObjAddr: 0x9DF4, symBinAddr: 0x10000E084, symSize: 0x48 }
  - { offsetInCU: 0x100F8, offset: 0x100F8, size: 0x8, addend: 0x0, symName: __ZNSt3__112__to_addressB7v160006INS_16reverse_iteratorIP7ProcessEEvEENS_5decayIDTclsr19__to_address_helperIT_EE6__callclsr3stdE7declvalIRKS6_EEEEE4typeES8_, symObjAddr: 0x9E70, symBinAddr: 0x10000E100, symSize: 0x24 }
  - { offsetInCU: 0x10157, offset: 0x10157, size: 0x8, addend: 0x0, symName: __ZNSt3__119__allocator_destroyB7v160006INS_9allocatorI7ProcessEENS_16reverse_iteratorINS4_IPS2_EEEES7_EEvRT_T0_T1_, symObjAddr: 0xA148, symBinAddr: 0x10000E3D8, symSize: 0x70 }
  - { offsetInCU: 0x101BC, offset: 0x101BC, size: 0x8, addend: 0x0, symName: __ZNSt3__1neB7v160006INS_16reverse_iteratorIP7ProcessEES4_EEbRKNS1_IT_EERKNS1_IT0_EE, symObjAddr: 0xA1F4, symBinAddr: 0x10000E484, symSize: 0x60 }
  - { offsetInCU: 0x10208, offset: 0x10208, size: 0x8, addend: 0x0, symName: __ZNSt3__112__to_addressB7v160006INS_16reverse_iteratorINS1_IP7ProcessEEEEvEENS_5decayIDTclsr19__to_address_helperIT_EE6__callclsr3stdE7declvalIRKS7_EEEEE4typeES9_, symObjAddr: 0xA254, symBinAddr: 0x10000E4E4, symSize: 0x24 }
  - { offsetInCU: 0x10267, offset: 0x10267, size: 0x8, addend: 0x0, symName: __ZNSt3__1miB7v160006IPK7ProcessS3_EEDTmicldtfp_4baseEcldtfp0_4baseEERKNS_11__wrap_iterIT_EERKNS5_IT0_EE, symObjAddr: 0xA650, symBinAddr: 0x10000E8E0, symSize: 0x48 }
  - { offsetInCU: 0x102B3, offset: 0x102B3, size: 0x8, addend: 0x0, symName: __ZNSt3__14moveB7v160006IP7ProcessS2_EET0_T_S4_S3_, symObjAddr: 0xA724, symBinAddr: 0x10000E9B4, symSize: 0x40 }
  - { offsetInCU: 0x1030D, offset: 0x1030D, size: 0x8, addend: 0x0, symName: __ZNSt3__16__moveB7v160006INS_17_ClassicAlgPolicyEP7ProcessS3_S3_EENS_4pairIT0_T2_EES5_T1_S6_, symObjAddr: 0xA908, symBinAddr: 0x10000EB98, symSize: 0x44 }
  - { offsetInCU: 0x10379, offset: 0x10379, size: 0x8, addend: 0x0, symName: __ZNSt3__123__dispatch_copy_or_moveB7v160006INS_17_ClassicAlgPolicyENS_11__move_loopIS1_EENS_14__move_trivialEP7ProcessS6_S6_EENS_4pairIT2_T4_EES8_T3_S9_, symObjAddr: 0xA94C, symBinAddr: 0x10000EBDC, symSize: 0x44 }
  - { offsetInCU: 0x103F7, offset: 0x103F7, size: 0x8, addend: 0x0, symName: __ZNSt3__121__unwrap_and_dispatchB7v160006INS_10__overloadINS_11__move_loopINS_17_ClassicAlgPolicyEEENS_14__move_trivialEEEP7ProcessS8_S8_Li0EEENS_4pairIT0_T2_EESA_T1_SB_, symObjAddr: 0xA990, symBinAddr: 0x10000EC20, symSize: 0xB4 }
  - { offsetInCU: 0x10485, offset: 0x10485, size: 0x8, addend: 0x0, symName: __ZNSt3__114__unwrap_rangeB7v160006IP7ProcessS2_EENS_4pairIT0_S4_EET_S6_, symObjAddr: 0xAA44, symBinAddr: 0x10000ECD4, symSize: 0x60 }
  - { offsetInCU: 0x1063F, offset: 0x1063F, size: 0x8, addend: 0x0, symName: __ZNSt3__113__unwrap_iterB7v160006IP7ProcessNS_18__unwrap_iter_implIS2_Lb1EEELi0EEEDTclsrT0_8__unwrapclsr3stdE7declvalIT_EEEES6_, symObjAddr: 0xAB34, symBinAddr: 0x10000EDC4, symSize: 0x24 }
  - { offsetInCU: 0x10683, offset: 0x10683, size: 0x8, addend: 0x0, symName: __ZNSt3__19make_pairB7v160006IP7ProcessS2_EENS_4pairINS_18__unwrap_ref_decayIT_E4typeENS4_IT0_E4typeEEEOS5_OS8_, symObjAddr: 0xAB58, symBinAddr: 0x10000EDE8, symSize: 0x38 }
  - { offsetInCU: 0x106D2, offset: 0x106D2, size: 0x8, addend: 0x0, symName: __ZNSt3__114__rewrap_rangeB7v160006IP7ProcessS2_EET_S3_T0_, symObjAddr: 0xAB90, symBinAddr: 0x10000EE20, symSize: 0x2C }
  - { offsetInCU: 0x1071E, offset: 0x1071E, size: 0x8, addend: 0x0, symName: __ZNSt3__113__rewrap_iterB7v160006IP7ProcessS2_NS_18__unwrap_iter_implIS2_Lb1EEEEET_S5_T0_, symObjAddr: 0xABBC, symBinAddr: 0x10000EE4C, symSize: 0x3C }
  - { offsetInCU: 0x10863, offset: 0x10863, size: 0x8, addend: 0x0, symName: __ZNSt3__119__debug_db_insert_cB7v160006INS_6vectorI10MemoryItemNS_9allocatorIS2_EEEEEEvPT_, symObjAddr: 0xB15C, symBinAddr: 0x10000F3EC, symSize: 0x10 }
  - { offsetInCU: 0x10894, offset: 0x10894, size: 0x8, addend: 0x0, symName: __ZNSt3__1neB7v160006ERKNS_16__deque_iteratorIyPyRyPS1_lLl512EEES6_, symObjAddr: 0xB67C, symBinAddr: 0x10000F90C, symSize: 0x34 }
  - { offsetInCU: 0x108D1, offset: 0x108D1, size: 0x8, addend: 0x0, symName: __ZNSt3__1eqB7v160006ERKNS_16__deque_iteratorIyPyRyPS1_lLl512EEES6_, symObjAddr: 0xB910, symBinAddr: 0x10000FBA0, symSize: 0x30 }
  - { offsetInCU: 0x1090E, offset: 0x1090E, size: 0x8, addend: 0x0, symName: __ZNSt3__112__to_addressB7v160006IPyEEPT_S3_, symObjAddr: 0xBC64, symBinAddr: 0x10000FEF4, symSize: 0x14 }
  - { offsetInCU: 0x10943, offset: 0x10943, size: 0x8, addend: 0x0, symName: __ZNSt3__118__debug_db_erase_cB7v160006INS_6vectorI10MemoryItemNS_9allocatorIS2_EEEEEEvPT_, symObjAddr: 0xBF6C, symBinAddr: 0x1000101FC, symSize: 0x10 }
  - { offsetInCU: 0x10DCD, offset: 0x10DCD, size: 0x8, addend: 0x0, symName: __ZNSt3__14swapB7v160006IPPyEENS_9enable_ifIXaasr21is_move_constructibleIT_EE5valuesr18is_move_assignableIS4_EE5valueEvE4typeERS4_S7_, symObjAddr: 0xD3D8, symBinAddr: 0x100011668, symSize: 0x3C }
  - { offsetInCU: 0x10E1E, offset: 0x10E1E, size: 0x8, addend: 0x0, symName: __ZNSt3__14moveB7v160006IPPyS2_EET0_T_S4_S3_, symObjAddr: 0xD4BC, symBinAddr: 0x10001174C, symSize: 0x40 }
  - { offsetInCU: 0x10E78, offset: 0x10E78, size: 0x8, addend: 0x0, symName: __ZNSt3__16__moveB7v160006INS_17_ClassicAlgPolicyEPPyS3_S3_EENS_4pairIT0_T2_EES5_T1_S6_, symObjAddr: 0xD660, symBinAddr: 0x1000118F0, symSize: 0x44 }
  - { offsetInCU: 0x10EE4, offset: 0x10EE4, size: 0x8, addend: 0x0, symName: __ZNSt3__123__dispatch_copy_or_moveB7v160006INS_17_ClassicAlgPolicyENS_11__move_loopIS1_EENS_14__move_trivialEPPyS6_S6_EENS_4pairIT2_T4_EES8_T3_S9_, symObjAddr: 0xD6A4, symBinAddr: 0x100011934, symSize: 0x44 }
  - { offsetInCU: 0x10F62, offset: 0x10F62, size: 0x8, addend: 0x0, symName: __ZNSt3__121__unwrap_and_dispatchB7v160006INS_10__overloadINS_11__move_loopINS_17_ClassicAlgPolicyEEENS_14__move_trivialEEEPPyS8_S8_Li0EEENS_4pairIT0_T2_EESA_T1_SB_, symObjAddr: 0xD6E8, symBinAddr: 0x100011978, symSize: 0xB4 }
  - { offsetInCU: 0x10FF0, offset: 0x10FF0, size: 0x8, addend: 0x0, symName: __ZNSt3__114__unwrap_rangeB7v160006IPPyS2_EENS_4pairIT0_S4_EET_S6_, symObjAddr: 0xD79C, symBinAddr: 0x100011A2C, symSize: 0x60 }
  - { offsetInCU: 0x1116E, offset: 0x1116E, size: 0x8, addend: 0x0, symName: __ZNSt3__113__unwrap_iterB7v160006IPPyNS_18__unwrap_iter_implIS2_Lb1EEELi0EEEDTclsrT0_8__unwrapclsr3stdE7declvalIT_EEEES6_, symObjAddr: 0xD844, symBinAddr: 0x100011AD4, symSize: 0x24 }
  - { offsetInCU: 0x111B2, offset: 0x111B2, size: 0x8, addend: 0x0, symName: __ZNSt3__19make_pairB7v160006IPPyS2_EENS_4pairINS_18__unwrap_ref_decayIT_E4typeENS4_IT0_E4typeEEEOS5_OS8_, symObjAddr: 0xD868, symBinAddr: 0x100011AF8, symSize: 0x38 }
  - { offsetInCU: 0x11201, offset: 0x11201, size: 0x8, addend: 0x0, symName: __ZNSt3__114__rewrap_rangeB7v160006IPPyS2_EET_S3_T0_, symObjAddr: 0xD8A0, symBinAddr: 0x100011B30, symSize: 0x2C }
  - { offsetInCU: 0x1124D, offset: 0x1124D, size: 0x8, addend: 0x0, symName: __ZNSt3__113__rewrap_iterB7v160006IPPyS2_NS_18__unwrap_iter_implIS2_Lb1EEEEET_S5_T0_, symObjAddr: 0xD8CC, symBinAddr: 0x100011B5C, symSize: 0x3C }
  - { offsetInCU: 0x112A2, offset: 0x112A2, size: 0x8, addend: 0x0, symName: __ZNSt3__119__copy_trivial_implB7v160006IPyS1_EENS_4pairIPT_PT0_EES4_S4_S6_, symObjAddr: 0xD908, symBinAddr: 0x100011B98, symSize: 0x84 }
  - { offsetInCU: 0x1130A, offset: 0x1130A, size: 0x8, addend: 0x0, symName: __ZNSt3__19make_pairB7v160006IRPPyS2_EENS_4pairINS_18__unwrap_ref_decayIT_E4typeENS5_IT0_E4typeEEEOS6_OS9_, symObjAddr: 0xD98C, symBinAddr: 0x100011C1C, symSize: 0x38 }
  - { offsetInCU: 0x113AC, offset: 0x113AC, size: 0x8, addend: 0x0, symName: __ZNSt3__18distanceB7v160006INS_13move_iteratorIPPyEEEENS_15iterator_traitsIT_E15difference_typeES6_S6_, symObjAddr: 0xDB18, symBinAddr: 0x100011DA8, symSize: 0x3C }
  - { offsetInCU: 0x113EF, offset: 0x113EF, size: 0x8, addend: 0x0, symName: __ZNSt3__110__distanceB7v160006INS_13move_iteratorIPPyEEEENS_15iterator_traitsIT_E15difference_typeES6_S6_NS_26random_access_iterator_tagE, symObjAddr: 0xDC50, symBinAddr: 0x100011EE0, symSize: 0x30 }
  - { offsetInCU: 0x1143C, offset: 0x1143C, size: 0x8, addend: 0x0, symName: __ZNSt3__1miB7v160006IPPyS2_EEDTmicldtfp_4baseEcldtfp0_4baseEERKNS_13move_iteratorIT_EERKNS4_IT0_EE, symObjAddr: 0xDC80, symBinAddr: 0x100011F10, symSize: 0x48 }
  - { offsetInCU: 0x1148B, offset: 0x1148B, size: 0x8, addend: 0x0, symName: __ZNSt3__113move_backwardB7v160006IPPyS2_EET0_T_S4_S3_, symObjAddr: 0xDE84, symBinAddr: 0x100012114, symSize: 0x40 }
  - { offsetInCU: 0x114E5, offset: 0x114E5, size: 0x8, addend: 0x0, symName: __ZNSt3__115__move_backwardB7v160006INS_17_ClassicAlgPolicyEPPyS3_S3_EENS_4pairIT0_T2_EES5_T1_S6_, symObjAddr: 0xDEC4, symBinAddr: 0x100012154, symSize: 0x44 }
  - { offsetInCU: 0x11551, offset: 0x11551, size: 0x8, addend: 0x0, symName: __ZNSt3__123__dispatch_copy_or_moveB7v160006INS_17_ClassicAlgPolicyENS_20__move_backward_loopIS1_EENS_23__move_backward_trivialEPPyS6_S6_EENS_4pairIT2_T4_EES8_T3_S9_, symObjAddr: 0xDF08, symBinAddr: 0x100012198, symSize: 0x44 }
  - { offsetInCU: 0x115CF, offset: 0x115CF, size: 0x8, addend: 0x0, symName: __ZNSt3__121__unwrap_and_dispatchB7v160006INS_10__overloadINS_20__move_backward_loopINS_17_ClassicAlgPolicyEEENS_23__move_backward_trivialEEEPPyS8_S8_Li0EEENS_4pairIT0_T2_EESA_T1_SB_, symObjAddr: 0xDF4C, symBinAddr: 0x1000121DC, symSize: 0xB4 }
  - { offsetInCU: 0x1165D, offset: 0x1165D, size: 0x8, addend: 0x0, symName: __ZNSt3__128__copy_backward_trivial_implB7v160006IPyS1_EENS_4pairIPT_PT0_EES4_S4_S6_, symObjAddr: 0xE048, symBinAddr: 0x1000122D8, symSize: 0x94 }
  - { offsetInCU: 0x116C5, offset: 0x116C5, size: 0x8, addend: 0x0, symName: __ZNSt3__19make_pairB7v160006IRPPyS3_EENS_4pairINS_18__unwrap_ref_decayIT_E4typeENS5_IT0_E4typeEEEOS6_OS9_, symObjAddr: 0xE0DC, symBinAddr: 0x10001236C, symSize: 0x38 }
  - { offsetInCU: 0x11714, offset: 0x11714, size: 0x8, addend: 0x0, symName: __ZNSt3__119__allocate_at_leastB7v160006INS_9allocatorIPyEEEENS_19__allocation_resultINS_16allocator_traitsIT_E7pointerEEERS6_m, symObjAddr: 0xE294, symBinAddr: 0x100012524, symSize: 0x40 }
  - { offsetInCU: 0x11757, offset: 0x11757, size: 0x8, addend: 0x0, symName: __ZNSt3__18distanceB7v160006IP10MemoryItemEENS_15iterator_traitsIT_E15difference_typeES4_S4_, symObjAddr: 0xEAC0, symBinAddr: 0x100012D50, symSize: 0x2C }
  - { offsetInCU: 0x1179A, offset: 0x1179A, size: 0x8, addend: 0x0, symName: __ZNSt3__14copyB7v160006IP10MemoryItemS2_EET0_T_S4_S3_, symObjAddr: 0xEB3C, symBinAddr: 0x100012DCC, symSize: 0x40 }
  - { offsetInCU: 0x117F4, offset: 0x117F4, size: 0x8, addend: 0x0, symName: __ZNSt3__125__debug_db_invalidate_allB7v160006INS_6vectorI10MemoryItemNS_9allocatorIS2_EEEEEEvPT_, symObjAddr: 0xEE5C, symBinAddr: 0x1000130EC, symSize: 0x10 }
  - { offsetInCU: 0x11825, offset: 0x11825, size: 0x8, addend: 0x0, symName: __ZNSt3__110__distanceB7v160006IP10MemoryItemEENS_15iterator_traitsIT_E15difference_typeES4_S4_NS_26random_access_iterator_tagE, symObjAddr: 0xEE6C, symBinAddr: 0x1000130FC, symSize: 0x28 }
  - { offsetInCU: 0x11872, offset: 0x11872, size: 0x8, addend: 0x0, symName: __ZNSt3__121__convert_to_integralB7v160006Em, symObjAddr: 0xEE94, symBinAddr: 0x100013124, symSize: 0x14 }
  - { offsetInCU: 0x1189E, offset: 0x1189E, size: 0x8, addend: 0x0, symName: __ZNSt3__19__advanceB7v160006IP10MemoryItemEEvRT_NS_15iterator_traitsIS3_E15difference_typeENS_26random_access_iterator_tagE, symObjAddr: 0xEEA8, symBinAddr: 0x100013138, symSize: 0x30 }
  - { offsetInCU: 0x118E7, offset: 0x118E7, size: 0x8, addend: 0x0, symName: __ZNSt3__16__copyB7v160006INS_17_ClassicAlgPolicyEP10MemoryItemS3_S3_EENS_4pairIT0_T2_EES5_T1_S6_, symObjAddr: 0xEED8, symBinAddr: 0x100013168, symSize: 0x44 }
  - { offsetInCU: 0x11953, offset: 0x11953, size: 0x8, addend: 0x0, symName: __ZNSt3__123__dispatch_copy_or_moveB7v160006INS_17_ClassicAlgPolicyENS_11__copy_loopIS1_EENS_14__copy_trivialEP10MemoryItemS6_S6_EENS_4pairIT2_T4_EES8_T3_S9_, symObjAddr: 0xEF1C, symBinAddr: 0x1000131AC, symSize: 0x44 }
  - { offsetInCU: 0x119D1, offset: 0x119D1, size: 0x8, addend: 0x0, symName: __ZNSt3__121__unwrap_and_dispatchB7v160006INS_10__overloadINS_11__copy_loopINS_17_ClassicAlgPolicyEEENS_14__copy_trivialEEEP10MemoryItemS8_S8_Li0EEENS_4pairIT0_T2_EESA_T1_SB_, symObjAddr: 0xEF60, symBinAddr: 0x1000131F0, symSize: 0xB4 }
  - { offsetInCU: 0x11A5F, offset: 0x11A5F, size: 0x8, addend: 0x0, symName: __ZNSt3__114__unwrap_rangeB7v160006IP10MemoryItemS2_EENS_4pairIT0_S4_EET_S6_, symObjAddr: 0xF014, symBinAddr: 0x1000132A4, symSize: 0x60 }
  - { offsetInCU: 0x11BF4, offset: 0x11BF4, size: 0x8, addend: 0x0, symName: __ZNSt3__113__unwrap_iterB7v160006IP10MemoryItemNS_18__unwrap_iter_implIS2_Lb1EEELi0EEEDTclsrT0_8__unwrapclsr3stdE7declvalIT_EEEES6_, symObjAddr: 0xF0BC, symBinAddr: 0x10001334C, symSize: 0x24 }
  - { offsetInCU: 0x11C38, offset: 0x11C38, size: 0x8, addend: 0x0, symName: __ZNSt3__19make_pairB7v160006IP10MemoryItemS2_EENS_4pairINS_18__unwrap_ref_decayIT_E4typeENS4_IT0_E4typeEEEOS5_OS8_, symObjAddr: 0xF0E0, symBinAddr: 0x100013370, symSize: 0x38 }
  - { offsetInCU: 0x11C87, offset: 0x11C87, size: 0x8, addend: 0x0, symName: __ZNSt3__114__rewrap_rangeB7v160006IP10MemoryItemS2_EET_S3_T0_, symObjAddr: 0xF118, symBinAddr: 0x1000133A8, symSize: 0x2C }
  - { offsetInCU: 0x11CD3, offset: 0x11CD3, size: 0x8, addend: 0x0, symName: __ZNSt3__113__rewrap_iterB7v160006IP10MemoryItemS2_NS_18__unwrap_iter_implIS2_Lb1EEEEET_S5_T0_, symObjAddr: 0xF144, symBinAddr: 0x1000133D4, symSize: 0x3C }
  - { offsetInCU: 0x11D28, offset: 0x11D28, size: 0x8, addend: 0x0, symName: __ZNSt3__119__copy_trivial_implB7v160006I10MemoryItemS1_EENS_4pairIPT_PT0_EES4_S4_S6_, symObjAddr: 0xF180, symBinAddr: 0x100013410, symSize: 0x8C }
  - { offsetInCU: 0x11D90, offset: 0x11D90, size: 0x8, addend: 0x0, symName: __ZNSt3__19make_pairB7v160006IRP10MemoryItemS2_EENS_4pairINS_18__unwrap_ref_decayIT_E4typeENS5_IT0_E4typeEEEOS6_OS9_, symObjAddr: 0xF20C, symBinAddr: 0x10001349C, symSize: 0x38 }
  - { offsetInCU: 0x11E32, offset: 0x11E32, size: 0x8, addend: 0x0, symName: __ZNSt3__130__uninitialized_allocator_copyB7v160006INS_9allocatorI10MemoryItemEEPS2_S4_S4_EET2_RT_T0_T1_S5_, symObjAddr: 0xF3DC, symBinAddr: 0x10001366C, symSize: 0xF4 }
  - { offsetInCU: 0x11ED0, offset: 0x11ED0, size: 0x8, addend: 0x0, symName: __ZNSt3__122__make_exception_guardB7v160006INS_29_AllocatorDestroyRangeReverseINS_9allocatorI10MemoryItemEEPS3_EEEENS_28__exception_guard_exceptionsIT_EES8_, symObjAddr: 0xF548, symBinAddr: 0x1000137D8, symSize: 0x4C }
  - { offsetInCU: 0x11F06, offset: 0x11F06, size: 0x8, addend: 0x0, symName: __ZNSt3__119__allocator_destroyB7v160006INS_9allocatorI10MemoryItemEENS_16reverse_iteratorIPS2_EES6_EEvRT_T0_T1_, symObjAddr: 0xF7D8, symBinAddr: 0x100013A68, symSize: 0x70 }
  - { offsetInCU: 0x11F69, offset: 0x11F69, size: 0x8, addend: 0x0, symName: __ZNSt3__1neB7v160006IP10MemoryItemS2_EEbRKNS_16reverse_iteratorIT_EERKNS3_IT0_EE, symObjAddr: 0xF87C, symBinAddr: 0x100013B0C, symSize: 0x48 }
  - { offsetInCU: 0x11FB5, offset: 0x11FB5, size: 0x8, addend: 0x0, symName: __ZNSt3__112__to_addressB7v160006INS_16reverse_iteratorIP10MemoryItemEEvEENS_5decayIDTclsr19__to_address_helperIT_EE6__callclsr3stdE7declvalIRKS6_EEEEE4typeES8_, symObjAddr: 0xF8C4, symBinAddr: 0x100013B54, symSize: 0x24 }
  - { offsetInCU: 0x12014, offset: 0x12014, size: 0x8, addend: 0x0, symName: __ZNSt3__119__allocate_at_leastB7v160006INS_9allocatorI10MemoryItemEEEENS_19__allocation_resultINS_16allocator_traitsIT_E7pointerEEERS6_m, symObjAddr: 0xFC00, symBinAddr: 0x100013E90, symSize: 0x40 }
  - { offsetInCU: 0x12057, offset: 0x12057, size: 0x8, addend: 0x0, symName: __ZNSt3__122__make_exception_guardB7v160006INS_6vectorI10MemoryItemNS_9allocatorIS2_EEE16__destroy_vectorEEENS_28__exception_guard_exceptionsIT_EES8_, symObjAddr: 0xFF5C, symBinAddr: 0x1000141EC, symSize: 0x40 }
  - { offsetInCU: 0x1208C, offset: 0x1208C, size: 0x8, addend: 0x0, symName: __ZNSt3__112__to_addressB7v160006IyEEPT_S2_, symObjAddr: 0x10144, symBinAddr: 0x1000143D4, symSize: 0x14 }
  - { offsetInCU: 0x120C1, offset: 0x120C1, size: 0x8, addend: 0x0, symName: __ZNSt3__142__uninitialized_allocator_move_if_noexceptB7v160006INS_9allocatorI10MemoryItemEENS_16reverse_iteratorIPS2_EES6_S2_vEET1_RT_T0_SA_S7_, symObjAddr: 0x10880, symBinAddr: 0x100014B10, symSize: 0x78 }
  - { offsetInCU: 0x1213E, offset: 0x1213E, size: 0x8, addend: 0x0, symName: __ZNSt3__14swapB7v160006IP10MemoryItemEENS_9enable_ifIXaasr21is_move_constructibleIT_EE5valuesr18is_move_assignableIS4_EE5valueEvE4typeERS4_S7_, symObjAddr: 0x108F8, symBinAddr: 0x100014B88, symSize: 0x3C }
  - { offsetInCU: 0x1218F, offset: 0x1218F, size: 0x8, addend: 0x0, symName: __ZNSt3__14moveB7v160006INS_16reverse_iteratorIP10MemoryItemEES4_EET0_T_S6_S5_, symObjAddr: 0x10934, symBinAddr: 0x100014BC4, symSize: 0x78 }
  - { offsetInCU: 0x121E9, offset: 0x121E9, size: 0x8, addend: 0x0, symName: __ZNSt3__16__moveB7v160006INS_17_ClassicAlgPolicyENS_16reverse_iteratorIP10MemoryItemEES5_S5_EENS_4pairIT0_T2_EES7_T1_S8_, symObjAddr: 0x109AC, symBinAddr: 0x100014C3C, symSize: 0x64 }
  - { offsetInCU: 0x12255, offset: 0x12255, size: 0x8, addend: 0x0, symName: __ZNSt3__123__dispatch_copy_or_moveB7v160006INS_17_ClassicAlgPolicyENS_11__move_loopIS1_EENS_14__move_trivialENS_16reverse_iteratorIP10MemoryItemEES8_S8_EENS_4pairIT2_T4_EESA_T3_SB_, symObjAddr: 0x10A10, symBinAddr: 0x100014CA0, symSize: 0x64 }
  - { offsetInCU: 0x122D3, offset: 0x122D3, size: 0x8, addend: 0x0, symName: __ZNSt3__121__unwrap_and_dispatchB7v160006INS_10__overloadINS_11__move_loopINS_17_ClassicAlgPolicyEEENS_14__move_trivialEEENS_16reverse_iteratorIP10MemoryItemEESA_SA_Li0EEENS_4pairIT0_T2_EESC_T1_SD_, symObjAddr: 0x10A74, symBinAddr: 0x100014D04, symSize: 0x12C }
  - { offsetInCU: 0x12363, offset: 0x12363, size: 0x8, addend: 0x0, symName: __ZNSt3__114__unwrap_rangeB7v160006INS_16reverse_iteratorIP10MemoryItemEES4_EENS_4pairIT0_S6_EET_S8_, symObjAddr: 0x10BA0, symBinAddr: 0x100014E30, symSize: 0x84 }
  - { offsetInCU: 0x12483, offset: 0x12483, size: 0x8, addend: 0x0, symName: __ZNSt3__113__unwrap_iterB7v160006INS_16reverse_iteratorIP10MemoryItemEENS_18__unwrap_iter_implIS4_Lb0EEELi0EEEDTclsrT0_8__unwrapclsr3stdE7declvalIT_EEEES8_, symObjAddr: 0x10CCC, symBinAddr: 0x100014F5C, symSize: 0x44 }
  - { offsetInCU: 0x124C7, offset: 0x124C7, size: 0x8, addend: 0x0, symName: __ZNSt3__19make_pairB7v160006INS_16reverse_iteratorIP10MemoryItemEES4_EENS_4pairINS_18__unwrap_ref_decayIT_E4typeENS6_IT0_E4typeEEEOS7_OSA_, symObjAddr: 0x10D10, symBinAddr: 0x100014FA0, symSize: 0x38 }
  - { offsetInCU: 0x12516, offset: 0x12516, size: 0x8, addend: 0x0, symName: __ZNSt3__114__rewrap_rangeB7v160006INS_16reverse_iteratorIP10MemoryItemEES4_EET_S5_T0_, symObjAddr: 0x10D48, symBinAddr: 0x100014FD8, symSize: 0x5C }
  - { offsetInCU: 0x12562, offset: 0x12562, size: 0x8, addend: 0x0, symName: __ZNSt3__113__rewrap_iterB7v160006INS_16reverse_iteratorIP10MemoryItemEES4_NS_18__unwrap_iter_implIS4_Lb0EEEEET_S7_T0_, symObjAddr: 0x10DA4, symBinAddr: 0x100015034, symSize: 0x74 }
  - { offsetInCU: 0x12623, offset: 0x12623, size: 0x8, addend: 0x0, symName: __ZNSt3__1miB7v160006IPK10MemoryItemS3_EEDTmicldtfp_4baseEcldtfp0_4baseEERKNS_11__wrap_iterIT_EERKNS5_IT0_EE, symObjAddr: 0x110F0, symBinAddr: 0x100015380, symSize: 0x48 }
  - { offsetInCU: 0x1266F, offset: 0x1266F, size: 0x8, addend: 0x0, symName: __ZNSt3__14moveB7v160006IP10MemoryItemS2_EET0_T_S4_S3_, symObjAddr: 0x11164, symBinAddr: 0x1000153F4, symSize: 0x40 }
  - { offsetInCU: 0x126C9, offset: 0x126C9, size: 0x8, addend: 0x0, symName: __ZNSt3__16__moveB7v160006INS_17_ClassicAlgPolicyEP10MemoryItemS3_S3_EENS_4pairIT0_T2_EES5_T1_S6_, symObjAddr: 0x11280, symBinAddr: 0x100015510, symSize: 0x44 }
  - { offsetInCU: 0x12735, offset: 0x12735, size: 0x8, addend: 0x0, symName: __ZNSt3__123__dispatch_copy_or_moveB7v160006INS_17_ClassicAlgPolicyENS_11__move_loopIS1_EENS_14__move_trivialEP10MemoryItemS6_S6_EENS_4pairIT2_T4_EES8_T3_S9_, symObjAddr: 0x112C4, symBinAddr: 0x100015554, symSize: 0x44 }
  - { offsetInCU: 0x127B3, offset: 0x127B3, size: 0x8, addend: 0x0, symName: __ZNSt3__121__unwrap_and_dispatchB7v160006INS_10__overloadINS_11__move_loopINS_17_ClassicAlgPolicyEEENS_14__move_trivialEEEP10MemoryItemS8_S8_Li0EEENS_4pairIT0_T2_EESA_T1_SB_, symObjAddr: 0x11308, symBinAddr: 0x100015598, symSize: 0xB4 }
  - { offsetInCU: 0x12841, offset: 0x12841, size: 0x8, addend: 0x0, symName: __ZNSt3__119__debug_db_insert_cB7v160006INS_6vectorI11DiskManagerNS_9allocatorIS2_EEEEEEvPT_, symObjAddr: 0x11498, symBinAddr: 0x100015728, symSize: 0x10 }
  - { offsetInCU: 0x12872, offset: 0x12872, size: 0x8, addend: 0x0, symName: __ZNSt3__116__pad_and_outputB7v160006IcNS_11char_traitsIcEEEENS_19ostreambuf_iteratorIT_T0_EES6_PKS4_S8_S8_RNS_8ios_baseES4_, symObjAddr: 0x117AC, symBinAddr: 0x100015A3C, symSize: 0x240 }
  - { offsetInCU: 0x12941, offset: 0x12941, size: 0x8, addend: 0x0, symName: __ZNSt3__119__debug_db_insert_cB7v160006INS_12basic_stringIcNS_11char_traitsIcEENS_9allocatorIcEEEEEEvPT_, symObjAddr: 0x11C60, symBinAddr: 0x100015EF0, symSize: 0x10 }
  - { offsetInCU: 0x12972, offset: 0x12972, size: 0x8, addend: 0x0, symName: __ZNSt3__112__to_addressB7v160006IKcEEPT_S3_, symObjAddr: 0x11D2C, symBinAddr: 0x100015FBC, symSize: 0x14 }
  - { offsetInCU: 0x129DA, offset: 0x129DA, size: 0x8, addend: 0x0, symName: __ZNSt3__19use_facetB7v160006INS_5ctypeIcEEEERKT_RKNS_6localeE, symObjAddr: 0x11FAC, symBinAddr: 0x10001623C, symSize: 0x2C }
  - { offsetInCU: 0x12EA9, offset: 0x12EA9, size: 0x8, addend: 0x0, symName: __ZNSt3__118__constexpr_strlenB7v160006EPKc, symObjAddr: 0x12044, symBinAddr: 0x1000162D4, symSize: 0x24 }
  - { offsetInCU: 0x133FD, offset: 0x133FD, size: 0x8, addend: 0x0, symName: __ZSt28__throw_bad_array_new_lengthB7v160006v, symObjAddr: 0x6740, symBinAddr: 0x10000A9D0, symSize: 0x34 }
  - { offsetInCU: 0x13D9E, offset: 0x13D9E, size: 0x8, addend: 0x0, symName: __ZNSt3__16vectorI7ProcessNS_9allocatorIS1_EEE26__swap_out_circular_bufferERNS_14__split_bufferIS1_RS3_EE, symObjAddr: 0x94D8, symBinAddr: 0x10000D768, symSize: 0x118 }
  - { offsetInCU: 0x141DB, offset: 0x141DB, size: 0x8, addend: 0x0, symName: __ZNSt3__16vectorI10MemoryItemNS_9allocatorIS1_EEE26__swap_out_circular_bufferERNS_14__split_bufferIS1_RS3_EE, symObjAddr: 0x10504, symBinAddr: 0x100014794, symSize: 0x118 }
  - { offsetInCU: 0x16770, offset: 0x16770, size: 0x8, addend: 0x0, symName: __ZN10CPUManagerC2Ev, symObjAddr: 0x0, symBinAddr: 0x100004290, symSize: 0x90 }
  - { offsetInCU: 0x1679C, offset: 0x1679C, size: 0x8, addend: 0x0, symName: __ZNSt3__15dequeIiNS_9allocatorIiEEEC1B7v160006Ev, symObjAddr: 0x90, symBinAddr: 0x100004320, symSize: 0x2C }
  - { offsetInCU: 0x167C6, offset: 0x167C6, size: 0x8, addend: 0x0, symName: __ZN7ProcessC1Ev, symObjAddr: 0xBC, symBinAddr: 0x10000434C, symSize: 0x2C }
  - { offsetInCU: 0x167F2, offset: 0x167F2, size: 0x8, addend: 0x0, symName: __ZNSt3__16vectorI7ProcessNS_9allocatorIS1_EEEC1B7v160006Ev, symObjAddr: 0xE8, symBinAddr: 0x100004378, symSize: 0x2C }
  - { offsetInCU: 0x1681C, offset: 0x1681C, size: 0x8, addend: 0x0, symName: __ZNSt3__15dequeIiNS_9allocatorIiEEED1B7v160006Ev, symObjAddr: 0x114, symBinAddr: 0x1000043A4, symSize: 0x2C }
  - { offsetInCU: 0x16846, offset: 0x16846, size: 0x8, addend: 0x0, symName: __ZN10CPUManagerC1Ev, symObjAddr: 0x140, symBinAddr: 0x1000043D0, symSize: 0x2C }
  - { offsetInCU: 0x16872, offset: 0x16872, size: 0x8, addend: 0x0, symName: __ZN10CPUManagerC2Ei, symObjAddr: 0x16C, symBinAddr: 0x1000043FC, symSize: 0xC0 }
  - { offsetInCU: 0x168AC, offset: 0x168AC, size: 0x8, addend: 0x0, symName: __ZNSt3__15dequeIiNS_9allocatorIiEEE10push_frontERKi, symObjAddr: 0x22C, symBinAddr: 0x1000044BC, symSize: 0xB0 }
  - { offsetInCU: 0x168F2, offset: 0x168F2, size: 0x8, addend: 0x0, symName: __ZNSt3__16vectorI7ProcessNS_9allocatorIS1_EEED1B7v160006Ev, symObjAddr: 0x2DC, symBinAddr: 0x10000456C, symSize: 0x2C }
  - { offsetInCU: 0x1691C, offset: 0x1691C, size: 0x8, addend: 0x0, symName: __ZN10CPUManagerC1Ei, symObjAddr: 0x308, symBinAddr: 0x100004598, symSize: 0x34 }
  - { offsetInCU: 0x16956, offset: 0x16956, size: 0x8, addend: 0x0, symName: __ZN10CPUManager13getReadyQueueEv, symObjAddr: 0x33C, symBinAddr: 0x1000045CC, symSize: 0x38 }
  - { offsetInCU: 0x1697D, offset: 0x1697D, size: 0x8, addend: 0x0, symName: __ZNSt3__15dequeIiNS_9allocatorIiEEEC1ERKS3_, symObjAddr: 0x374, symBinAddr: 0x100004604, symSize: 0x34 }
  - { offsetInCU: 0x169B8, offset: 0x169B8, size: 0x8, addend: 0x0, symName: __ZN10CPUManager15addToReadyQueueER7Process, symObjAddr: 0x3A8, symBinAddr: 0x100004638, symSize: 0x8C }
  - { offsetInCU: 0x169ED, offset: 0x169ED, size: 0x8, addend: 0x0, symName: __ZNKSt3__15dequeIiNS_9allocatorIiEEE5emptyB7v160006Ev, symObjAddr: 0x434, symBinAddr: 0x1000046C4, symSize: 0x30 }
  - { offsetInCU: 0x16A13, offset: 0x16A13, size: 0x8, addend: 0x0, symName: __ZN7Process8setStateEi, symObjAddr: 0x464, symBinAddr: 0x1000046F4, symSize: 0x20 }
  - { offsetInCU: 0x16A49, offset: 0x16A49, size: 0x8, addend: 0x0, symName: __ZN10CPUManager17setCurrentProcessE7Process, symObjAddr: 0x484, symBinAddr: 0x100004714, symSize: 0x50 }
  - { offsetInCU: 0x16A7F, offset: 0x16A7F, size: 0x8, addend: 0x0, symName: __ZNSt3__15dequeIiNS_9allocatorIiEEE9push_backEOi, symObjAddr: 0x4D4, symBinAddr: 0x100004764, symSize: 0xA0 }
  - { offsetInCU: 0x16AC5, offset: 0x16AC5, size: 0x8, addend: 0x0, symName: __ZN7Process6getPIDEv, symObjAddr: 0x574, symBinAddr: 0x100004804, symSize: 0x18 }
  - { offsetInCU: 0x16AED, offset: 0x16AED, size: 0x8, addend: 0x0, symName: __ZN10CPUManager13getCPUProcessEv, symObjAddr: 0x58C, symBinAddr: 0x10000481C, symSize: 0x18 }
  - { offsetInCU: 0x16B15, offset: 0x16B15, size: 0x8, addend: 0x0, symName: __ZN10CPUManager17getCurrentProcessEv, symObjAddr: 0x5A4, symBinAddr: 0x100004834, symSize: 0x24 }
  - { offsetInCU: 0x16B3D, offset: 0x16B3D, size: 0x8, addend: 0x0, symName: __ZN7ProcessaSERKS_, symObjAddr: 0x5C8, symBinAddr: 0x100004858, symSize: 0x48 }
  - { offsetInCU: 0x16B73, offset: 0x16B73, size: 0x8, addend: 0x0, symName: __ZN10CPUManager11exitProcessEv, symObjAddr: 0x610, symBinAddr: 0x1000048A0, symSize: 0x70 }
  - { offsetInCU: 0x16B9B, offset: 0x16B9B, size: 0x8, addend: 0x0, symName: __ZN7Process7getTypeEv, symObjAddr: 0x680, symBinAddr: 0x100004910, symSize: 0x18 }
  - { offsetInCU: 0x16BC3, offset: 0x16BC3, size: 0x8, addend: 0x0, symName: __ZN10CPUManager22findParentAndTerminateEv, symObjAddr: 0x698, symBinAddr: 0x100004928, symSize: 0xEC }
  - { offsetInCU: 0x16C08, offset: 0x16C08, size: 0x8, addend: 0x0, symName: __ZN10CPUManager21findChildAndTerminateEv, symObjAddr: 0x784, symBinAddr: 0x100004A14, symSize: 0x2E0 }
  - { offsetInCU: 0x16C6A, offset: 0x16C6A, size: 0x8, addend: 0x0, symName: __ZN10CPUManager17isReadyQueueEmptyEv, symObjAddr: 0xA64, symBinAddr: 0x100004CF4, symSize: 0x5C }
  - { offsetInCU: 0x16C92, offset: 0x16C92, size: 0x8, addend: 0x0, symName: __ZN10CPUManager13createProcessEv, symObjAddr: 0xAC0, symBinAddr: 0x100004D50, symSize: 0xD0 }
  - { offsetInCU: 0x16CC8, offset: 0x16CC8, size: 0x8, addend: 0x0, symName: __ZN7Process7setTypeE4TYPE, symObjAddr: 0xB90, symBinAddr: 0x100004E20, symSize: 0x20 }
  - { offsetInCU: 0x16CFE, offset: 0x16CFE, size: 0x8, addend: 0x0, symName: __ZN7Process6setPIDEi, symObjAddr: 0xBB0, symBinAddr: 0x100004E40, symSize: 0x20 }
  - { offsetInCU: 0x16D34, offset: 0x16D34, size: 0x8, addend: 0x0, symName: __ZNSt3__16vectorI7ProcessNS_9allocatorIS1_EEE9push_backB7v160006ERKS1_, symObjAddr: 0xBD0, symBinAddr: 0x100004E60, symSize: 0x6C }
  - { offsetInCU: 0x16D6B, offset: 0x16D6B, size: 0x8, addend: 0x0, symName: __ZN10CPUManager11forkProcessEv, symObjAddr: 0xC3C, symBinAddr: 0x100004ECC, symSize: 0x144 }
  - { offsetInCU: 0x16DCD, offset: 0x16DCD, size: 0x8, addend: 0x0, symName: __ZNKSt3__16vectorI7ProcessNS_9allocatorIS1_EEE4sizeB7v160006Ev, symObjAddr: 0xD80, symBinAddr: 0x100005010, symSize: 0x28 }
  - { offsetInCU: 0x16DF3, offset: 0x16DF3, size: 0x8, addend: 0x0, symName: __ZNSt3__16vectorI7ProcessNS_9allocatorIS1_EEEixB7v160006Em, symObjAddr: 0xDA8, symBinAddr: 0x100005038, symSize: 0x24 }
  - { offsetInCU: 0x16E2A, offset: 0x16E2A, size: 0x8, addend: 0x0, symName: __ZN7Process9setParentEi, symObjAddr: 0xDCC, symBinAddr: 0x10000505C, symSize: 0x20 }
  - { offsetInCU: 0x16E60, offset: 0x16E60, size: 0x8, addend: 0x0, symName: __ZN10CPUManager7isChildE7Process, symObjAddr: 0xDEC, symBinAddr: 0x10000507C, symSize: 0xD8 }
  - { offsetInCU: 0x16EB3, offset: 0x16EB3, size: 0x8, addend: 0x0, symName: __ZN10CPUManager20cascadingTerminationER7Process, symObjAddr: 0xEC4, symBinAddr: 0x100005154, symSize: 0x838 }
  - { offsetInCU: 0x16FD2, offset: 0x16FD2, size: 0x8, addend: 0x0, symName: __ZN7Process12getParentPIDEv, symObjAddr: 0x16FC, symBinAddr: 0x10000598C, symSize: 0x18 }
  - { offsetInCU: 0x16FFA, offset: 0x16FFA, size: 0x8, addend: 0x0, symName: __ZN7Process8getStateEv, symObjAddr: 0x1714, symBinAddr: 0x1000059A4, symSize: 0x18 }
  - { offsetInCU: 0x17022, offset: 0x17022, size: 0x8, addend: 0x0, symName: __ZNSt3__16vectorI7ProcessNS_9allocatorIS1_EEE5eraseB7v160006ENS_11__wrap_iterIPKS1_EE, symObjAddr: 0x172C, symBinAddr: 0x1000059BC, symSize: 0xA4 }
  - { offsetInCU: 0x17077, offset: 0x17077, size: 0x8, addend: 0x0, symName: __ZNSt3__16vectorI7ProcessNS_9allocatorIS1_EEE5beginB7v160006Ev, symObjAddr: 0x17D0, symBinAddr: 0x100005A60, symSize: 0x30 }
  - { offsetInCU: 0x1709F, offset: 0x1709F, size: 0x8, addend: 0x0, symName: __ZNKSt3__111__wrap_iterIP7ProcessEplB7v160006El, symObjAddr: 0x1800, symBinAddr: 0x100005A90, symSize: 0x3C }
  - { offsetInCU: 0x170EB, offset: 0x170EB, size: 0x8, addend: 0x0, symName: __ZNSt3__111__wrap_iterIPK7ProcessEC1B7v160006IPS1_EERKNS0_IT_EEPNS_9enable_ifIXsr14is_convertibleIS7_S3_EE5valueEvE4typeE, symObjAddr: 0x183C, symBinAddr: 0x100005ACC, symSize: 0x3C }
  - { offsetInCU: 0x17136, offset: 0x17136, size: 0x8, addend: 0x0, symName: __ZNSt3__15dequeIiNS_9allocatorIiEEE5frontEv, symObjAddr: 0x1878, symBinAddr: 0x100005B08, symSize: 0x50 }
  - { offsetInCU: 0x1715E, offset: 0x1715E, size: 0x8, addend: 0x0, symName: __ZNSt3__15dequeIiNS_9allocatorIiEEE9pop_frontEv, symObjAddr: 0x18C8, symBinAddr: 0x100005B58, symSize: 0xAC }
  - { offsetInCU: 0x17195, offset: 0x17195, size: 0x8, addend: 0x0, symName: __ZN10CPUManager9interruptEv, symObjAddr: 0x1974, symBinAddr: 0x100005C04, symSize: 0x1BC }
  - { offsetInCU: 0x17355, offset: 0x17355, size: 0x8, addend: 0x0, symName: __ZN13MemoryManagerC2Ev, symObjAddr: 0x1B30, symBinAddr: 0x100005DC0, symSize: 0x38 }
  - { offsetInCU: 0x17381, offset: 0x17381, size: 0x8, addend: 0x0, symName: __ZNSt3__15dequeIyNS_9allocatorIyEEEC1B7v160006Ev, symObjAddr: 0x1B68, symBinAddr: 0x100005DF8, symSize: 0x2C }
  - { offsetInCU: 0x173AB, offset: 0x173AB, size: 0x8, addend: 0x0, symName: __ZNSt3__16vectorI10MemoryItemNS_9allocatorIS1_EEEC1B7v160006Ev, symObjAddr: 0x1B94, symBinAddr: 0x100005E24, symSize: 0x2C }
  - { offsetInCU: 0x173D5, offset: 0x173D5, size: 0x8, addend: 0x0, symName: __ZN13MemoryManagerC1Ev, symObjAddr: 0x1BC0, symBinAddr: 0x100005E50, symSize: 0x2C }
  - { offsetInCU: 0x17401, offset: 0x17401, size: 0x8, addend: 0x0, symName: __ZN13MemoryManagerC2Eyj, symObjAddr: 0x1BEC, symBinAddr: 0x100005E7C, symSize: 0xF8 }
  - { offsetInCU: 0x1747A, offset: 0x1747A, size: 0x8, addend: 0x0, symName: __ZNSt3__15dequeIyNS_9allocatorIyEEE9push_backEOy, symObjAddr: 0x1CE4, symBinAddr: 0x100005F74, symSize: 0xA0 }
  - { offsetInCU: 0x174C0, offset: 0x174C0, size: 0x8, addend: 0x0, symName: __ZNSt3__16vectorI10MemoryItemNS_9allocatorIS1_EEED1B7v160006Ev, symObjAddr: 0x1D84, symBinAddr: 0x100006014, symSize: 0x2C }
  - { offsetInCU: 0x174EA, offset: 0x174EA, size: 0x8, addend: 0x0, symName: __ZNSt3__15dequeIyNS_9allocatorIyEEED1B7v160006Ev, symObjAddr: 0x1DB0, symBinAddr: 0x100006040, symSize: 0x2C }
  - { offsetInCU: 0x17514, offset: 0x17514, size: 0x8, addend: 0x0, symName: __ZN13MemoryManagerC1Eyj, symObjAddr: 0x1DDC, symBinAddr: 0x10000606C, symSize: 0x3C }
  - { offsetInCU: 0x1755C, offset: 0x1755C, size: 0x8, addend: 0x0, symName: __ZN13MemoryManager10setRAMSizeEy, symObjAddr: 0x1E18, symBinAddr: 0x1000060A8, symSize: 0x20 }
  - { offsetInCU: 0x17592, offset: 0x17592, size: 0x8, addend: 0x0, symName: __ZN13MemoryManager11setPageSizeEj, symObjAddr: 0x1E38, symBinAddr: 0x1000060C8, symSize: 0x20 }
  - { offsetInCU: 0x175C8, offset: 0x175C8, size: 0x8, addend: 0x0, symName: __ZN13MemoryManager14setMemoryUsageENSt3__16vectorI10MemoryItemNS0_9allocatorIS2_EEEE, symObjAddr: 0x1E58, symBinAddr: 0x1000060E8, symSize: 0x30 }
  - { offsetInCU: 0x175FF, offset: 0x175FF, size: 0x8, addend: 0x0, symName: __ZNSt3__16vectorI10MemoryItemNS_9allocatorIS1_EEEaSB7v160006ERKS4_, symObjAddr: 0x1E88, symBinAddr: 0x100006118, symSize: 0x68 }
  - { offsetInCU: 0x17636, offset: 0x17636, size: 0x8, addend: 0x0, symName: __ZN13MemoryManager10getRAMSizeEv, symObjAddr: 0x1EF0, symBinAddr: 0x100006180, symSize: 0x18 }
  - { offsetInCU: 0x1765E, offset: 0x1765E, size: 0x8, addend: 0x0, symName: __ZN13MemoryManager11getPageSizeEv, symObjAddr: 0x1F08, symBinAddr: 0x100006198, symSize: 0x18 }
  - { offsetInCU: 0x17686, offset: 0x17686, size: 0x8, addend: 0x0, symName: __ZN13MemoryManager14getMemoryUsageEv, symObjAddr: 0x1F20, symBinAddr: 0x1000061B0, symSize: 0x3C }
  - { offsetInCU: 0x176AE, offset: 0x176AE, size: 0x8, addend: 0x0, symName: __ZNSt3__16vectorI10MemoryItemNS_9allocatorIS1_EEEC1ERKS4_, symObjAddr: 0x1F5C, symBinAddr: 0x1000061EC, symSize: 0x34 }
  - { offsetInCU: 0x176E9, offset: 0x176E9, size: 0x8, addend: 0x0, symName: __ZN13MemoryManager13getPageNumberEy, symObjAddr: 0x1F90, symBinAddr: 0x100006220, symSize: 0x24 }
  - { offsetInCU: 0x1771F, offset: 0x1771F, size: 0x8, addend: 0x0, symName: __ZN13MemoryManager13accessAddressEiy, symObjAddr: 0x1FB4, symBinAddr: 0x100006244, symSize: 0x124 }
  - { offsetInCU: 0x1779C, offset: 0x1779C, size: 0x8, addend: 0x0, symName: __ZNSt3__15dequeIyNS_9allocatorIyEEE5frontEv, symObjAddr: 0x20D8, symBinAddr: 0x100006368, symSize: 0x50 }
  - { offsetInCU: 0x177C4, offset: 0x177C4, size: 0x8, addend: 0x0, symName: __ZNSt3__15dequeIyNS_9allocatorIyEEE9push_backERKy, symObjAddr: 0x2128, symBinAddr: 0x1000063B8, symSize: 0xA0 }
  - { offsetInCU: 0x1780A, offset: 0x1780A, size: 0x8, addend: 0x0, symName: __ZNSt3__15dequeIyNS_9allocatorIyEEE9pop_frontEv, symObjAddr: 0x21C8, symBinAddr: 0x100006458, symSize: 0xAC }
  - { offsetInCU: 0x17841, offset: 0x17841, size: 0x8, addend: 0x0, symName: __ZNSt3__16vectorI10MemoryItemNS_9allocatorIS1_EEE5beginB7v160006Ev, symObjAddr: 0x2274, symBinAddr: 0x100006504, symSize: 0x30 }
  - { offsetInCU: 0x17869, offset: 0x17869, size: 0x8, addend: 0x0, symName: __ZNSt3__16vectorI10MemoryItemNS_9allocatorIS1_EEE3endB7v160006Ev, symObjAddr: 0x22D8, symBinAddr: 0x100006568, symSize: 0x30 }
  - { offsetInCU: 0x17891, offset: 0x17891, size: 0x8, addend: 0x0, symName: __ZNKSt3__111__wrap_iterIP10MemoryItemEptB7v160006Ev, symObjAddr: 0x2308, symBinAddr: 0x100006598, symSize: 0x28 }
  - { offsetInCU: 0x178B7, offset: 0x178B7, size: 0x8, addend: 0x0, symName: __ZNKSt3__111__wrap_iterIP10MemoryItemEdeB7v160006Ev, symObjAddr: 0x2330, symBinAddr: 0x1000065C0, symSize: 0x18 }
  - { offsetInCU: 0x178DD, offset: 0x178DD, size: 0x8, addend: 0x0, symName: __ZNSt3__111__wrap_iterIP10MemoryItemEppB7v160006Ev, symObjAddr: 0x2348, symBinAddr: 0x1000065D8, symSize: 0x20 }
  - { offsetInCU: 0x17903, offset: 0x17903, size: 0x8, addend: 0x0, symName: __ZNSt3__16vectorI10MemoryItemNS_9allocatorIS1_EEE9push_backB7v160006ERKS1_, symObjAddr: 0x2368, symBinAddr: 0x1000065F8, symSize: 0x6C }
  - { offsetInCU: 0x1793A, offset: 0x1793A, size: 0x8, addend: 0x0, symName: __ZN13MemoryManager11clearMemoryEi, symObjAddr: 0x23D4, symBinAddr: 0x100006664, symSize: 0xC4 }
  - { offsetInCU: 0x1798D, offset: 0x1798D, size: 0x8, addend: 0x0, symName: __ZNSt3__16vectorI10MemoryItemNS_9allocatorIS1_EEE5eraseB7v160006ENS_11__wrap_iterIPKS1_EE, symObjAddr: 0x2498, symBinAddr: 0x100006728, symSize: 0xAC }
  - { offsetInCU: 0x179E7, offset: 0x179E7, size: 0x8, addend: 0x0, symName: __ZNSt3__111__wrap_iterIPK10MemoryItemEC1B7v160006IPS1_EERKNS0_IT_EEPNS_9enable_ifIXsr14is_convertibleIS7_S3_EE5valueEvE4typeE, symObjAddr: 0x2544, symBinAddr: 0x1000067D4, symSize: 0x3C }
  - { offsetInCU: 0x17A32, offset: 0x17A32, size: 0x8, addend: 0x0, symName: __ZN7ProcessC2Ev, symObjAddr: 0x2580, symBinAddr: 0x100006810, symSize: 0x14 }
  - { offsetInCU: 0x17BD5, offset: 0x17BD5, size: 0x8, addend: 0x0, symName: __ZN5SimOSC2Ev, symObjAddr: 0x2594, symBinAddr: 0x100006824, symSize: 0x48 }
  - { offsetInCU: 0x17C01, offset: 0x17C01, size: 0x8, addend: 0x0, symName: __ZNSt3__16vectorI11DiskManagerNS_9allocatorIS1_EEEC1B7v160006Ev, symObjAddr: 0x25DC, symBinAddr: 0x10000686C, symSize: 0x2C }
  - { offsetInCU: 0x17C2B, offset: 0x17C2B, size: 0x8, addend: 0x0, symName: __ZN5SimOSC1Ev, symObjAddr: 0x2608, symBinAddr: 0x100006898, symSize: 0x2C }
  - { offsetInCU: 0x17C57, offset: 0x17C57, size: 0x8, addend: 0x0, symName: __ZN5SimOSC2Eiyj, symObjAddr: 0x2634, symBinAddr: 0x1000068C4, symSize: 0x6C }
  - { offsetInCU: 0x17CAD, offset: 0x17CAD, size: 0x8, addend: 0x0, symName: __ZN5SimOSC1Eiyj, symObjAddr: 0x26A0, symBinAddr: 0x100006930, symSize: 0x44 }
  - { offsetInCU: 0x17D03, offset: 0x17D03, size: 0x8, addend: 0x0, symName: __ZN5SimOS10NewProcessEv, symObjAddr: 0x26E4, symBinAddr: 0x100006974, symSize: 0x28 }
  - { offsetInCU: 0x17D2B, offset: 0x17D2B, size: 0x8, addend: 0x0, symName: __ZN5SimOS7SimForkEv, symObjAddr: 0x270C, symBinAddr: 0x10000699C, symSize: 0x28 }
  - { offsetInCU: 0x17D53, offset: 0x17D53, size: 0x8, addend: 0x0, symName: __ZN5SimOS7SimExitEv, symObjAddr: 0x2734, symBinAddr: 0x1000069C4, symSize: 0x48 }
  - { offsetInCU: 0x17D7A, offset: 0x17D7A, size: 0x8, addend: 0x0, symName: __ZN5SimOS7SimWaitEv, symObjAddr: 0x277C, symBinAddr: 0x100006A0C, symSize: 0x10 }
  - { offsetInCU: 0x17DA2, offset: 0x17DA2, size: 0x8, addend: 0x0, symName: __ZN5SimOS14TimerInterruptEv, symObjAddr: 0x278C, symBinAddr: 0x100006A1C, symSize: 0x28 }
  - { offsetInCU: 0x17DCA, offset: 0x17DCA, size: 0x8, addend: 0x0, symName: __ZN5SimOS15DiskReadRequestEiNSt3__112basic_stringIcNS0_11char_traitsIcEENS0_9allocatorIcEEEE, symObjAddr: 0x27B4, symBinAddr: 0x100006A44, symSize: 0x18 }
  - { offsetInCU: 0x17E0F, offset: 0x17E0F, size: 0x8, addend: 0x0, symName: __ZN5SimOS16DiskJobCompletedEi, symObjAddr: 0x27CC, symBinAddr: 0x100006A5C, symSize: 0x14 }
  - { offsetInCU: 0x17E45, offset: 0x17E45, size: 0x8, addend: 0x0, symName: __ZN5SimOS19AccessMemoryAddressEy, symObjAddr: 0x27E0, symBinAddr: 0x100006A70, symSize: 0x6C }
  - { offsetInCU: 0x17E7B, offset: 0x17E7B, size: 0x8, addend: 0x0, symName: __ZN5SimOS6GetCPUEv, symObjAddr: 0x284C, symBinAddr: 0x100006ADC, symSize: 0x28 }
  - { offsetInCU: 0x17EA3, offset: 0x17EA3, size: 0x8, addend: 0x0, symName: __ZN5SimOS13GetReadyQueueEv, symObjAddr: 0x2874, symBinAddr: 0x100006B04, symSize: 0x30 }
  - { offsetInCU: 0x17ECB, offset: 0x17ECB, size: 0x8, addend: 0x0, symName: __ZN5SimOS9GetMemoryEv, symObjAddr: 0x28A4, symBinAddr: 0x100006B34, symSize: 0x30 }
  - { offsetInCU: 0x17EF3, offset: 0x17EF3, size: 0x8, addend: 0x0, symName: _main, symObjAddr: 0x28D4, symBinAddr: 0x100006B64, symSize: 0x3B0 }
  - { offsetInCU: 0x17F3B, offset: 0x17F3B, size: 0x8, addend: 0x0, symName: __ZNSt3__113basic_ostreamIcNS_11char_traitsIcEEElsB7v160006EPFRS3_S4_E, symObjAddr: 0x2CCC, symBinAddr: 0x100006F5C, symSize: 0x2C }
  - { offsetInCU: 0x17F6F, offset: 0x17F6F, size: 0x8, addend: 0x0, symName: __ZNKSt3__15dequeIiNS_9allocatorIiEEE4sizeB7v160006Ev, symObjAddr: 0x2D50, symBinAddr: 0x100006FE0, symSize: 0x28 }
  - { offsetInCU: 0x17F95, offset: 0x17F95, size: 0x8, addend: 0x0, symName: __ZNSt3__15dequeIiNS_9allocatorIiEEEaSEOS3_, symObjAddr: 0x2D78, symBinAddr: 0x100007008, symSize: 0x34 }
  - { offsetInCU: 0x17FCC, offset: 0x17FCC, size: 0x8, addend: 0x0, symName: __ZNSt3__15dequeIiNS_9allocatorIiEEEixEm, symObjAddr: 0x2DAC, symBinAddr: 0x10000703C, symSize: 0x5C }
  - { offsetInCU: 0x18012, offset: 0x18012, size: 0x8, addend: 0x0, symName: __ZN5SimOSD1Ev, symObjAddr: 0x2E08, symBinAddr: 0x100007098, symSize: 0x2C }
  - { offsetInCU: 0x1803E, offset: 0x1803E, size: 0x8, addend: 0x0, symName: __ZNSt3__111__wrap_iterIP7ProcessEpLB7v160006El, symObjAddr: 0x2E34, symBinAddr: 0x1000070C4, symSize: 0x28 }
  - { offsetInCU: 0x18072, offset: 0x18072, size: 0x8, addend: 0x0, symName: __ZNSt3__111__wrap_iterIPK7ProcessEC2B7v160006IPS1_EERKNS0_IT_EEPNS_9enable_ifIXsr14is_convertibleIS7_S3_EE5valueEvE4typeE, symObjAddr: 0x2E5C, symBinAddr: 0x1000070EC, symSize: 0x40 }
  - { offsetInCU: 0x180BD, offset: 0x180BD, size: 0x8, addend: 0x0, symName: __ZNKSt3__111__wrap_iterIP7ProcessE4baseB7v160006Ev, symObjAddr: 0x2E9C, symBinAddr: 0x10000712C, symSize: 0x18 }
  - { offsetInCU: 0x180E3, offset: 0x180E3, size: 0x8, addend: 0x0, symName: __ZNKSt3__111__wrap_iterIP10MemoryItemE4baseB7v160006Ev, symObjAddr: 0x2EFC, symBinAddr: 0x10000718C, symSize: 0x18 }
  - { offsetInCU: 0x18109, offset: 0x18109, size: 0x8, addend: 0x0, symName: __ZNSt3__111__wrap_iterIPK10MemoryItemEC2B7v160006IPS1_EERKNS0_IT_EEPNS_9enable_ifIXsr14is_convertibleIS7_S3_EE5valueEvE4typeE, symObjAddr: 0x2F28, symBinAddr: 0x1000071B8, symSize: 0x40 }
  - { offsetInCU: 0x18154, offset: 0x18154, size: 0x8, addend: 0x0, symName: __ZN5SimOSD2Ev, symObjAddr: 0x2F68, symBinAddr: 0x1000071F8, symSize: 0x48 }
  - { offsetInCU: 0x18180, offset: 0x18180, size: 0x8, addend: 0x0, symName: __ZN13MemoryManagerD1Ev, symObjAddr: 0x2FB0, symBinAddr: 0x100007240, symSize: 0x2C }
  - { offsetInCU: 0x181AC, offset: 0x181AC, size: 0x8, addend: 0x0, symName: __ZNSt3__16vectorI11DiskManagerNS_9allocatorIS1_EEED1B7v160006Ev, symObjAddr: 0x2FDC, symBinAddr: 0x10000726C, symSize: 0x2C }
  - { offsetInCU: 0x181D6, offset: 0x181D6, size: 0x8, addend: 0x0, symName: __ZN10CPUManagerD1Ev, symObjAddr: 0x3008, symBinAddr: 0x100007298, symSize: 0x2C }
  - { offsetInCU: 0x18202, offset: 0x18202, size: 0x8, addend: 0x0, symName: __ZN13MemoryManagerD2Ev, symObjAddr: 0x3034, symBinAddr: 0x1000072C4, symSize: 0x38 }
  - { offsetInCU: 0x1822E, offset: 0x1822E, size: 0x8, addend: 0x0, symName: __ZNSt3__16vectorI11DiskManagerNS_9allocatorIS1_EEED2B7v160006Ev, symObjAddr: 0x306C, symBinAddr: 0x1000072FC, symSize: 0x44 }
  - { offsetInCU: 0x18258, offset: 0x18258, size: 0x8, addend: 0x0, symName: __ZNSt3__16vectorI11DiskManagerNS_9allocatorIS1_EEE16__destroy_vectorC1ERS4_, symObjAddr: 0x30B0, symBinAddr: 0x100007340, symSize: 0x34 }
  - { offsetInCU: 0x18291, offset: 0x18291, size: 0x8, addend: 0x0, symName: __ZNSt3__16vectorI11DiskManagerNS_9allocatorIS1_EEE16__destroy_vectorclB7v160006Ev, symObjAddr: 0x30F0, symBinAddr: 0x100007380, symSize: 0x9C }
  - { offsetInCU: 0x182B7, offset: 0x182B7, size: 0x8, addend: 0x0, symName: __ZNSt3__16vectorI11DiskManagerNS_9allocatorIS1_EEE16__destroy_vectorC2ERS4_, symObjAddr: 0x318C, symBinAddr: 0x10000741C, symSize: 0x20 }
  - { offsetInCU: 0x182F0, offset: 0x182F0, size: 0x8, addend: 0x0, symName: __ZNKSt3__16vectorI11DiskManagerNS_9allocatorIS1_EEE17__annotate_deleteB7v160006Ev, symObjAddr: 0x31AC, symBinAddr: 0x10000743C, symSize: 0xB8 }
  - { offsetInCU: 0x18316, offset: 0x18316, size: 0x8, addend: 0x0, symName: __ZNSt3__16vectorI11DiskManagerNS_9allocatorIS1_EEE7__clearB7v160006Ev, symObjAddr: 0x3274, symBinAddr: 0x100007504, symSize: 0x28 }
  - { offsetInCU: 0x1833C, offset: 0x1833C, size: 0x8, addend: 0x0, symName: __ZNSt3__116allocator_traitsINS_9allocatorI11DiskManagerEEE10deallocateB7v160006ERS3_PS2_m, symObjAddr: 0x329C, symBinAddr: 0x10000752C, symSize: 0x34 }
  - { offsetInCU: 0x1837E, offset: 0x1837E, size: 0x8, addend: 0x0, symName: __ZNSt3__16vectorI11DiskManagerNS_9allocatorIS1_EEE7__allocB7v160006Ev, symObjAddr: 0x32D0, symBinAddr: 0x100007560, symSize: 0x28 }
  - { offsetInCU: 0x183A4, offset: 0x183A4, size: 0x8, addend: 0x0, symName: __ZNKSt3__16vectorI11DiskManagerNS_9allocatorIS1_EEE8capacityB7v160006Ev, symObjAddr: 0x32F8, symBinAddr: 0x100007588, symSize: 0x38 }
  - { offsetInCU: 0x183CA, offset: 0x183CA, size: 0x8, addend: 0x0, symName: __ZNKSt3__16vectorI11DiskManagerNS_9allocatorIS1_EEE31__annotate_contiguous_containerB7v160006EPKvS6_S6_S6_, symObjAddr: 0x3330, symBinAddr: 0x1000075C0, symSize: 0x20 }
  - { offsetInCU: 0x1841C, offset: 0x1841C, size: 0x8, addend: 0x0, symName: __ZNKSt3__16vectorI11DiskManagerNS_9allocatorIS1_EEE4dataB7v160006Ev, symObjAddr: 0x3350, symBinAddr: 0x1000075E0, symSize: 0x28 }
  - { offsetInCU: 0x18442, offset: 0x18442, size: 0x8, addend: 0x0, symName: __ZNKSt3__16vectorI11DiskManagerNS_9allocatorIS1_EEE4sizeB7v160006Ev, symObjAddr: 0x3378, symBinAddr: 0x100007608, symSize: 0x20 }
  - { offsetInCU: 0x18468, offset: 0x18468, size: 0x8, addend: 0x0, symName: __ZNSt3__16vectorI11DiskManagerNS_9allocatorIS1_EEE22__base_destruct_at_endB7v160006EPS1_, symObjAddr: 0x33AC, symBinAddr: 0x10000763C, symSize: 0x8C }
  - { offsetInCU: 0x184AC, offset: 0x184AC, size: 0x8, addend: 0x0, symName: __ZNSt3__116allocator_traitsINS_9allocatorI11DiskManagerEEE7destroyB7v160006IS2_vEEvRS3_PT_, symObjAddr: 0x3438, symBinAddr: 0x1000076C8, symSize: 0x2C }
  - { offsetInCU: 0x184E9, offset: 0x184E9, size: 0x8, addend: 0x0, symName: __ZNSt3__19allocatorI11DiskManagerE7destroyB7v160006EPS1_, symObjAddr: 0x3464, symBinAddr: 0x1000076F4, symSize: 0x14 }
  - { offsetInCU: 0x1851D, offset: 0x1851D, size: 0x8, addend: 0x0, symName: __ZNSt3__19allocatorI11DiskManagerE10deallocateB7v160006EPS1_m, symObjAddr: 0x3478, symBinAddr: 0x100007708, symSize: 0x40 }
  - { offsetInCU: 0x1855F, offset: 0x1855F, size: 0x8, addend: 0x0, symName: __ZNSt3__117__compressed_pairIP11DiskManagerNS_9allocatorIS1_EEE6secondB7v160006Ev, symObjAddr: 0x3534, symBinAddr: 0x1000077C4, symSize: 0x24 }
  - { offsetInCU: 0x18585, offset: 0x18585, size: 0x8, addend: 0x0, symName: __ZNSt3__122__compressed_pair_elemINS_9allocatorI11DiskManagerEELi1ELb1EE5__getB7v160006Ev, symObjAddr: 0x3558, symBinAddr: 0x1000077E8, symSize: 0x14 }
  - { offsetInCU: 0x185AB, offset: 0x185AB, size: 0x8, addend: 0x0, symName: __ZNKSt3__16vectorI11DiskManagerNS_9allocatorIS1_EEE9__end_capB7v160006Ev, symObjAddr: 0x356C, symBinAddr: 0x1000077FC, symSize: 0x28 }
  - { offsetInCU: 0x185D1, offset: 0x185D1, size: 0x8, addend: 0x0, symName: __ZNKSt3__117__compressed_pairIP11DiskManagerNS_9allocatorIS1_EEE5firstB7v160006Ev, symObjAddr: 0x3594, symBinAddr: 0x100007824, symSize: 0x24 }
  - { offsetInCU: 0x185F7, offset: 0x185F7, size: 0x8, addend: 0x0, symName: __ZNKSt3__122__compressed_pair_elemIP11DiskManagerLi0ELb0EE5__getB7v160006Ev, symObjAddr: 0x35B8, symBinAddr: 0x100007848, symSize: 0x14 }
  - { offsetInCU: 0x1861D, offset: 0x1861D, size: 0x8, addend: 0x0, symName: __ZN10CPUManagerD2Ev, symObjAddr: 0x35CC, symBinAddr: 0x10000785C, symSize: 0x44 }
  - { offsetInCU: 0x18649, offset: 0x18649, size: 0x8, addend: 0x0, symName: __ZNSt3__15dequeIiNS_9allocatorIiEEEC2B7v160006Ev, symObjAddr: 0x3610, symBinAddr: 0x1000078A0, symSize: 0x50 }
  - { offsetInCU: 0x18673, offset: 0x18673, size: 0x8, addend: 0x0, symName: __ZNSt3__114__split_bufferIPiNS_9allocatorIS1_EEEC1Ev, symObjAddr: 0x3660, symBinAddr: 0x1000078F0, symSize: 0x2C }
  - { offsetInCU: 0x186A9, offset: 0x186A9, size: 0x8, addend: 0x0, symName: __ZNSt3__117__compressed_pairImNS_9allocatorIiEEEC1B7v160006IiNS_18__default_init_tagEEEOT_OT0_, symObjAddr: 0x368C, symBinAddr: 0x10000791C, symSize: 0x3C }
  - { offsetInCU: 0x18701, offset: 0x18701, size: 0x8, addend: 0x0, symName: __ZNSt3__114__split_bufferIPiNS_9allocatorIS1_EEEC2Ev, symObjAddr: 0x36C8, symBinAddr: 0x100007958, symSize: 0x50 }
  - { offsetInCU: 0x18732, offset: 0x18732, size: 0x8, addend: 0x0, symName: __ZNSt3__117__compressed_pairIPPiNS_9allocatorIS1_EEEC1B7v160006IDnNS_18__default_init_tagEEEOT_OT0_, symObjAddr: 0x3718, symBinAddr: 0x1000079A8, symSize: 0x3C }
  - { offsetInCU: 0x1878A, offset: 0x1878A, size: 0x8, addend: 0x0, symName: __ZNSt3__117__compressed_pairIPPiNS_9allocatorIS1_EEEC2B7v160006IDnNS_18__default_init_tagEEEOT_OT0_, symObjAddr: 0x3754, symBinAddr: 0x1000079E4, symSize: 0x40 }
  - { offsetInCU: 0x187E2, offset: 0x187E2, size: 0x8, addend: 0x0, symName: __ZNSt3__122__compressed_pair_elemIPPiLi0ELb0EEC2B7v160006IDnvEEOT_, symObjAddr: 0x3794, symBinAddr: 0x100007A24, symSize: 0x1C }
  - { offsetInCU: 0x18824, offset: 0x18824, size: 0x8, addend: 0x0, symName: __ZNSt3__122__compressed_pair_elemINS_9allocatorIPiEELi1ELb1EEC2B7v160006ENS_18__default_init_tagE, symObjAddr: 0x37B0, symBinAddr: 0x100007A40, symSize: 0x2C }
  - { offsetInCU: 0x18858, offset: 0x18858, size: 0x8, addend: 0x0, symName: __ZNSt3__19allocatorIPiEC2B7v160006Ev, symObjAddr: 0x37DC, symBinAddr: 0x100007A6C, symSize: 0x2C }
  - { offsetInCU: 0x18882, offset: 0x18882, size: 0x8, addend: 0x0, symName: __ZNSt3__116__non_trivial_ifILb1ENS_9allocatorIPiEEEC2B7v160006Ev, symObjAddr: 0x3808, symBinAddr: 0x100007A98, symSize: 0x14 }
  - { offsetInCU: 0x188AC, offset: 0x188AC, size: 0x8, addend: 0x0, symName: __ZNSt3__117__compressed_pairImNS_9allocatorIiEEEC2B7v160006IiNS_18__default_init_tagEEEOT_OT0_, symObjAddr: 0x381C, symBinAddr: 0x100007AAC, symSize: 0x40 }
  - { offsetInCU: 0x18904, offset: 0x18904, size: 0x8, addend: 0x0, symName: __ZNSt3__122__compressed_pair_elemImLi0ELb0EEC2B7v160006IivEEOT_, symObjAddr: 0x385C, symBinAddr: 0x100007AEC, symSize: 0x24 }
  - { offsetInCU: 0x18946, offset: 0x18946, size: 0x8, addend: 0x0, symName: __ZNSt3__122__compressed_pair_elemINS_9allocatorIiEELi1ELb1EEC2B7v160006ENS_18__default_init_tagE, symObjAddr: 0x3880, symBinAddr: 0x100007B10, symSize: 0x2C }
  - { offsetInCU: 0x1897A, offset: 0x1897A, size: 0x8, addend: 0x0, symName: __ZNSt3__19allocatorIiEC2B7v160006Ev, symObjAddr: 0x38AC, symBinAddr: 0x100007B3C, symSize: 0x2C }
  - { offsetInCU: 0x189A4, offset: 0x189A4, size: 0x8, addend: 0x0, symName: __ZNSt3__116__non_trivial_ifILb1ENS_9allocatorIiEEEC2B7v160006Ev, symObjAddr: 0x38D8, symBinAddr: 0x100007B68, symSize: 0x14 }
  - { offsetInCU: 0x189CE, offset: 0x189CE, size: 0x8, addend: 0x0, symName: __ZNSt3__16vectorI7ProcessNS_9allocatorIS1_EEEC2B7v160006Ev, symObjAddr: 0x38EC, symBinAddr: 0x100007B7C, symSize: 0x58 }
  - { offsetInCU: 0x189F8, offset: 0x189F8, size: 0x8, addend: 0x0, symName: __ZNSt3__117__compressed_pairIP7ProcessNS_9allocatorIS1_EEEC1B7v160006IDnNS_18__default_init_tagEEEOT_OT0_, symObjAddr: 0x3944, symBinAddr: 0x100007BD4, symSize: 0x3C }
  - { offsetInCU: 0x18A50, offset: 0x18A50, size: 0x8, addend: 0x0, symName: __ZNSt3__117__compressed_pairIP7ProcessNS_9allocatorIS1_EEEC2B7v160006IDnNS_18__default_init_tagEEEOT_OT0_, symObjAddr: 0x3990, symBinAddr: 0x100007C20, symSize: 0x40 }
  - { offsetInCU: 0x18AA8, offset: 0x18AA8, size: 0x8, addend: 0x0, symName: __ZNSt3__122__compressed_pair_elemIP7ProcessLi0ELb0EEC2B7v160006IDnvEEOT_, symObjAddr: 0x39D0, symBinAddr: 0x100007C60, symSize: 0x1C }
  - { offsetInCU: 0x18AEA, offset: 0x18AEA, size: 0x8, addend: 0x0, symName: __ZNSt3__122__compressed_pair_elemINS_9allocatorI7ProcessEELi1ELb1EEC2B7v160006ENS_18__default_init_tagE, symObjAddr: 0x39EC, symBinAddr: 0x100007C7C, symSize: 0x2C }
  - { offsetInCU: 0x18B1E, offset: 0x18B1E, size: 0x8, addend: 0x0, symName: __ZNSt3__19allocatorI7ProcessEC2B7v160006Ev, symObjAddr: 0x3A18, symBinAddr: 0x100007CA8, symSize: 0x2C }
  - { offsetInCU: 0x18B48, offset: 0x18B48, size: 0x8, addend: 0x0, symName: __ZNSt3__116__non_trivial_ifILb1ENS_9allocatorI7ProcessEEEC2B7v160006Ev, symObjAddr: 0x3A44, symBinAddr: 0x100007CD4, symSize: 0x14 }
  - { offsetInCU: 0x18B72, offset: 0x18B72, size: 0x8, addend: 0x0, symName: __ZNSt3__15dequeIiNS_9allocatorIiEEED2B7v160006Ev, symObjAddr: 0x3A58, symBinAddr: 0x100007CE8, symSize: 0x9C }
  - { offsetInCU: 0x18BC9, offset: 0x18BC9, size: 0x8, addend: 0x0, symName: __ZNSt3__15dequeIiNS_9allocatorIiEEE5clearEv, symObjAddr: 0x3AF4, symBinAddr: 0x100007D84, symSize: 0x180 }
  - { offsetInCU: 0x18C24, offset: 0x18C24, size: 0x8, addend: 0x0, symName: __ZNSt3__114__split_bufferIPiNS_9allocatorIS1_EEE5beginB7v160006Ev, symObjAddr: 0x3C74, symBinAddr: 0x100007F04, symSize: 0x18 }
  - { offsetInCU: 0x18C4A, offset: 0x18C4A, size: 0x8, addend: 0x0, symName: __ZNSt3__114__split_bufferIPiNS_9allocatorIS1_EEE3endB7v160006Ev, symObjAddr: 0x3C8C, symBinAddr: 0x100007F1C, symSize: 0x18 }
  - { offsetInCU: 0x18C70, offset: 0x18C70, size: 0x8, addend: 0x0, symName: __ZNSt3__116allocator_traitsINS_9allocatorIiEEE10deallocateB7v160006ERS2_Pim, symObjAddr: 0x3CA4, symBinAddr: 0x100007F34, symSize: 0x34 }
  - { offsetInCU: 0x18CB2, offset: 0x18CB2, size: 0x8, addend: 0x0, symName: __ZNSt3__15dequeIiNS_9allocatorIiEEE7__allocB7v160006Ev, symObjAddr: 0x3CD8, symBinAddr: 0x100007F68, symSize: 0x28 }
  - { offsetInCU: 0x18CD8, offset: 0x18CD8, size: 0x8, addend: 0x0, symName: __ZNSt3__114__split_bufferIPiNS_9allocatorIS1_EEED1Ev, symObjAddr: 0x3D00, symBinAddr: 0x100007F90, symSize: 0x2C }
  - { offsetInCU: 0x18D04, offset: 0x18D04, size: 0x8, addend: 0x0, symName: __ZNSt3__15dequeIiNS_9allocatorIiEEE5beginB7v160006Ev, symObjAddr: 0x3D2C, symBinAddr: 0x100007FBC, symSize: 0xB8 }
  - { offsetInCU: 0x18D39, offset: 0x18D39, size: 0x8, addend: 0x0, symName: __ZNSt3__15dequeIiNS_9allocatorIiEEE3endB7v160006Ev, symObjAddr: 0x3DE4, symBinAddr: 0x100008074, symSize: 0xBC }
  - { offsetInCU: 0x18D7D, offset: 0x18D7D, size: 0x8, addend: 0x0, symName: __ZNSt3__116allocator_traitsINS_9allocatorIiEEE7destroyB7v160006IivEEvRS2_PT_, symObjAddr: 0x3ED4, symBinAddr: 0x100008164, symSize: 0x2C }
  - { offsetInCU: 0x18DBA, offset: 0x18DBA, size: 0x8, addend: 0x0, symName: __ZNKSt3__116__deque_iteratorIiPiRiPS1_lLl1024EEdeB7v160006Ev, symObjAddr: 0x3F00, symBinAddr: 0x100008190, symSize: 0x18 }
  - { offsetInCU: 0x18DE0, offset: 0x18DE0, size: 0x8, addend: 0x0, symName: __ZNSt3__116__deque_iteratorIiPiRiPS1_lLl1024EEppB7v160006Ev, symObjAddr: 0x3F18, symBinAddr: 0x1000081A8, symSize: 0x70 }
  - { offsetInCU: 0x18E06, offset: 0x18E06, size: 0x8, addend: 0x0, symName: __ZNSt3__15dequeIiNS_9allocatorIiEEE6__sizeB7v160006Ev, symObjAddr: 0x3F88, symBinAddr: 0x100008218, symSize: 0x28 }
  - { offsetInCU: 0x18E2C, offset: 0x18E2C, size: 0x8, addend: 0x0, symName: __ZNKSt3__114__split_bufferIPiNS_9allocatorIS1_EEE4sizeB7v160006Ev, symObjAddr: 0x3FB0, symBinAddr: 0x100008240, symSize: 0x28 }
  - { offsetInCU: 0x18E52, offset: 0x18E52, size: 0x8, addend: 0x0, symName: __ZNSt3__114__split_bufferIPiNS_9allocatorIS1_EEE5frontB7v160006Ev, symObjAddr: 0x3FD8, symBinAddr: 0x100008268, symSize: 0x18 }
  - { offsetInCU: 0x18E78, offset: 0x18E78, size: 0x8, addend: 0x0, symName: __ZNSt3__114__split_bufferIPiNS_9allocatorIS1_EEE9pop_frontB7v160006Ev, symObjAddr: 0x3FF0, symBinAddr: 0x100008280, symSize: 0x2C }
  - { offsetInCU: 0x18E9E, offset: 0x18E9E, size: 0x8, addend: 0x0, symName: __ZNKSt3__114__split_bufferIPiNS_9allocatorIS1_EEE5emptyB7v160006Ev, symObjAddr: 0x401C, symBinAddr: 0x1000082AC, symSize: 0x28 }
  - { offsetInCU: 0x18EC4, offset: 0x18EC4, size: 0x8, addend: 0x0, symName: __ZNSt3__116__deque_iteratorIiPiRiPS1_lLl1024EEC1B7v160006ES3_S1_, symObjAddr: 0x4044, symBinAddr: 0x1000082D4, symSize: 0x3C }
  - { offsetInCU: 0x18F0C, offset: 0x18F0C, size: 0x8, addend: 0x0, symName: __ZNSt3__116__deque_iteratorIiPiRiPS1_lLl1024EEC2B7v160006ES3_S1_, symObjAddr: 0x4080, symBinAddr: 0x100008310, symSize: 0x2C }
  - { offsetInCU: 0x18F54, offset: 0x18F54, size: 0x8, addend: 0x0, symName: __ZNSt3__19allocatorIiE7destroyB7v160006EPi, symObjAddr: 0x40DC, symBinAddr: 0x10000836C, symSize: 0x14 }
  - { offsetInCU: 0x18F88, offset: 0x18F88, size: 0x8, addend: 0x0, symName: __ZNSt3__117__compressed_pairImNS_9allocatorIiEEE5firstB7v160006Ev, symObjAddr: 0x40F0, symBinAddr: 0x100008380, symSize: 0x24 }
  - { offsetInCU: 0x18FAE, offset: 0x18FAE, size: 0x8, addend: 0x0, symName: __ZNSt3__122__compressed_pair_elemImLi0ELb0EE5__getB7v160006Ev, symObjAddr: 0x4114, symBinAddr: 0x1000083A4, symSize: 0x14 }
  - { offsetInCU: 0x18FD4, offset: 0x18FD4, size: 0x8, addend: 0x0, symName: __ZNSt3__114__split_bufferIPiNS_9allocatorIS1_EEE19__destruct_at_beginB7v160006EPS1_, symObjAddr: 0x4128, symBinAddr: 0x1000083B8, symSize: 0x2C }
  - { offsetInCU: 0x19008, offset: 0x19008, size: 0x8, addend: 0x0, symName: __ZNSt3__114__split_bufferIPiNS_9allocatorIS1_EEE19__destruct_at_beginEPS1_NS_17integral_constantIbLb1EEE, symObjAddr: 0x4154, symBinAddr: 0x1000083E4, symSize: 0x20 }
  - { offsetInCU: 0x19048, offset: 0x19048, size: 0x8, addend: 0x0, symName: __ZNSt3__19allocatorIiE10deallocateB7v160006EPim, symObjAddr: 0x4174, symBinAddr: 0x100008404, symSize: 0x40 }
  - { offsetInCU: 0x1908A, offset: 0x1908A, size: 0x8, addend: 0x0, symName: __ZNSt3__117__compressed_pairImNS_9allocatorIiEEE6secondB7v160006Ev, symObjAddr: 0x41B4, symBinAddr: 0x100008444, symSize: 0x24 }
  - { offsetInCU: 0x190B0, offset: 0x190B0, size: 0x8, addend: 0x0, symName: __ZNSt3__122__compressed_pair_elemINS_9allocatorIiEELi1ELb1EE5__getB7v160006Ev, symObjAddr: 0x41D8, symBinAddr: 0x100008468, symSize: 0x14 }
  - { offsetInCU: 0x190D6, offset: 0x190D6, size: 0x8, addend: 0x0, symName: __ZNSt3__114__split_bufferIPiNS_9allocatorIS1_EEED2Ev, symObjAddr: 0x41EC, symBinAddr: 0x10000847C, symSize: 0x8C }
  - { offsetInCU: 0x19102, offset: 0x19102, size: 0x8, addend: 0x0, symName: __ZNSt3__114__split_bufferIPiNS_9allocatorIS1_EEE5clearB7v160006Ev, symObjAddr: 0x4278, symBinAddr: 0x100008508, symSize: 0x28 }
  - { offsetInCU: 0x19128, offset: 0x19128, size: 0x8, addend: 0x0, symName: __ZNSt3__116allocator_traitsINS_9allocatorIPiEEE10deallocateB7v160006ERS3_PS2_m, symObjAddr: 0x42A0, symBinAddr: 0x100008530, symSize: 0x34 }
  - { offsetInCU: 0x1916A, offset: 0x1916A, size: 0x8, addend: 0x0, symName: __ZNSt3__114__split_bufferIPiNS_9allocatorIS1_EEE7__allocB7v160006Ev, symObjAddr: 0x42D4, symBinAddr: 0x100008564, symSize: 0x28 }
  - { offsetInCU: 0x19190, offset: 0x19190, size: 0x8, addend: 0x0, symName: __ZNKSt3__114__split_bufferIPiNS_9allocatorIS1_EEE8capacityB7v160006Ev, symObjAddr: 0x42FC, symBinAddr: 0x10000858C, symSize: 0x40 }
  - { offsetInCU: 0x191B6, offset: 0x191B6, size: 0x8, addend: 0x0, symName: __ZNSt3__114__split_bufferIPiNS_9allocatorIS1_EEE17__destruct_at_endB7v160006EPS1_, symObjAddr: 0x433C, symBinAddr: 0x1000085CC, symSize: 0x2C }
  - { offsetInCU: 0x191EA, offset: 0x191EA, size: 0x8, addend: 0x0, symName: __ZNSt3__114__split_bufferIPiNS_9allocatorIS1_EEE17__destruct_at_endB7v160006EPS1_NS_17integral_constantIbLb0EEE, symObjAddr: 0x4368, symBinAddr: 0x1000085F8, symSize: 0x80 }
  - { offsetInCU: 0x1922A, offset: 0x1922A, size: 0x8, addend: 0x0, symName: __ZNSt3__116allocator_traitsINS_9allocatorIPiEEE7destroyB7v160006IS2_vEEvRS3_PT_, symObjAddr: 0x43E8, symBinAddr: 0x100008678, symSize: 0x2C }
  - { offsetInCU: 0x19267, offset: 0x19267, size: 0x8, addend: 0x0, symName: __ZNSt3__19allocatorIPiE7destroyB7v160006EPS1_, symObjAddr: 0x4428, symBinAddr: 0x1000086B8, symSize: 0x14 }
  - { offsetInCU: 0x1929B, offset: 0x1929B, size: 0x8, addend: 0x0, symName: __ZNSt3__19allocatorIPiE10deallocateB7v160006EPS1_m, symObjAddr: 0x443C, symBinAddr: 0x1000086CC, symSize: 0x40 }
  - { offsetInCU: 0x192DD, offset: 0x192DD, size: 0x8, addend: 0x0, symName: __ZNSt3__117__compressed_pairIPPiNS_9allocatorIS1_EEE6secondB7v160006Ev, symObjAddr: 0x447C, symBinAddr: 0x10000870C, symSize: 0x24 }
  - { offsetInCU: 0x19303, offset: 0x19303, size: 0x8, addend: 0x0, symName: __ZNSt3__122__compressed_pair_elemINS_9allocatorIPiEELi1ELb1EE5__getB7v160006Ev, symObjAddr: 0x44A0, symBinAddr: 0x100008730, symSize: 0x14 }
  - { offsetInCU: 0x19329, offset: 0x19329, size: 0x8, addend: 0x0, symName: __ZNKSt3__114__split_bufferIPiNS_9allocatorIS1_EEE9__end_capB7v160006Ev, symObjAddr: 0x44B4, symBinAddr: 0x100008744, symSize: 0x28 }
  - { offsetInCU: 0x1934F, offset: 0x1934F, size: 0x8, addend: 0x0, symName: __ZNKSt3__117__compressed_pairIPPiNS_9allocatorIS1_EEE5firstB7v160006Ev, symObjAddr: 0x44DC, symBinAddr: 0x10000876C, symSize: 0x24 }
  - { offsetInCU: 0x19375, offset: 0x19375, size: 0x8, addend: 0x0, symName: __ZNKSt3__122__compressed_pair_elemIPPiLi0ELb0EE5__getB7v160006Ev, symObjAddr: 0x4500, symBinAddr: 0x100008790, symSize: 0x14 }
  - { offsetInCU: 0x1939B, offset: 0x1939B, size: 0x8, addend: 0x0, symName: __ZNSt3__16vectorI7ProcessNS_9allocatorIS1_EEED2B7v160006Ev, symObjAddr: 0x4514, symBinAddr: 0x1000087A4, symSize: 0x44 }
  - { offsetInCU: 0x193C5, offset: 0x193C5, size: 0x8, addend: 0x0, symName: __ZNSt3__16vectorI7ProcessNS_9allocatorIS1_EEE16__destroy_vectorC1ERS4_, symObjAddr: 0x4558, symBinAddr: 0x1000087E8, symSize: 0x34 }
  - { offsetInCU: 0x193FE, offset: 0x193FE, size: 0x8, addend: 0x0, symName: __ZNSt3__16vectorI7ProcessNS_9allocatorIS1_EEE16__destroy_vectorclB7v160006Ev, symObjAddr: 0x458C, symBinAddr: 0x10000881C, symSize: 0x9C }
  - { offsetInCU: 0x19424, offset: 0x19424, size: 0x8, addend: 0x0, symName: __ZNSt3__16vectorI7ProcessNS_9allocatorIS1_EEE16__destroy_vectorC2ERS4_, symObjAddr: 0x4628, symBinAddr: 0x1000088B8, symSize: 0x20 }
  - { offsetInCU: 0x1945D, offset: 0x1945D, size: 0x8, addend: 0x0, symName: __ZNKSt3__16vectorI7ProcessNS_9allocatorIS1_EEE17__annotate_deleteB7v160006Ev, symObjAddr: 0x4648, symBinAddr: 0x1000088D8, symSize: 0xB8 }
  - { offsetInCU: 0x19483, offset: 0x19483, size: 0x8, addend: 0x0, symName: __ZNSt3__16vectorI7ProcessNS_9allocatorIS1_EEE7__clearB7v160006Ev, symObjAddr: 0x4710, symBinAddr: 0x1000089A0, symSize: 0x28 }
  - { offsetInCU: 0x194A9, offset: 0x194A9, size: 0x8, addend: 0x0, symName: __ZNSt3__116allocator_traitsINS_9allocatorI7ProcessEEE10deallocateB7v160006ERS3_PS2_m, symObjAddr: 0x4738, symBinAddr: 0x1000089C8, symSize: 0x34 }
  - { offsetInCU: 0x194EB, offset: 0x194EB, size: 0x8, addend: 0x0, symName: __ZNSt3__16vectorI7ProcessNS_9allocatorIS1_EEE7__allocB7v160006Ev, symObjAddr: 0x476C, symBinAddr: 0x1000089FC, symSize: 0x28 }
  - { offsetInCU: 0x19511, offset: 0x19511, size: 0x8, addend: 0x0, symName: __ZNKSt3__16vectorI7ProcessNS_9allocatorIS1_EEE8capacityB7v160006Ev, symObjAddr: 0x4794, symBinAddr: 0x100008A24, symSize: 0x40 }
  - { offsetInCU: 0x19537, offset: 0x19537, size: 0x8, addend: 0x0, symName: __ZNKSt3__16vectorI7ProcessNS_9allocatorIS1_EEE31__annotate_contiguous_containerB7v160006EPKvS6_S6_S6_, symObjAddr: 0x47D4, symBinAddr: 0x100008A64, symSize: 0x20 }
  - { offsetInCU: 0x19589, offset: 0x19589, size: 0x8, addend: 0x0, symName: __ZNKSt3__16vectorI7ProcessNS_9allocatorIS1_EEE4dataB7v160006Ev, symObjAddr: 0x47F4, symBinAddr: 0x100008A84, symSize: 0x28 }
  - { offsetInCU: 0x195AF, offset: 0x195AF, size: 0x8, addend: 0x0, symName: __ZNSt3__16vectorI7ProcessNS_9allocatorIS1_EEE22__base_destruct_at_endB7v160006EPS1_, symObjAddr: 0x4830, symBinAddr: 0x100008AC0, symSize: 0x8C }
  - { offsetInCU: 0x195F3, offset: 0x195F3, size: 0x8, addend: 0x0, symName: __ZNSt3__116allocator_traitsINS_9allocatorI7ProcessEEE7destroyB7v160006IS2_vEEvRS3_PT_, symObjAddr: 0x48BC, symBinAddr: 0x100008B4C, symSize: 0x2C }
  - { offsetInCU: 0x19630, offset: 0x19630, size: 0x8, addend: 0x0, symName: __ZNSt3__19allocatorI7ProcessE7destroyB7v160006EPS1_, symObjAddr: 0x48E8, symBinAddr: 0x100008B78, symSize: 0x14 }
  - { offsetInCU: 0x19664, offset: 0x19664, size: 0x8, addend: 0x0, symName: __ZNSt3__19allocatorI7ProcessE10deallocateB7v160006EPS1_m, symObjAddr: 0x48FC, symBinAddr: 0x100008B8C, symSize: 0x40 }
  - { offsetInCU: 0x196A6, offset: 0x196A6, size: 0x8, addend: 0x0, symName: __ZNSt3__117__compressed_pairIP7ProcessNS_9allocatorIS1_EEE6secondB7v160006Ev, symObjAddr: 0x493C, symBinAddr: 0x100008BCC, symSize: 0x24 }
  - { offsetInCU: 0x196CC, offset: 0x196CC, size: 0x8, addend: 0x0, symName: __ZNSt3__122__compressed_pair_elemINS_9allocatorI7ProcessEELi1ELb1EE5__getB7v160006Ev, symObjAddr: 0x4960, symBinAddr: 0x100008BF0, symSize: 0x14 }
  - { offsetInCU: 0x196F2, offset: 0x196F2, size: 0x8, addend: 0x0, symName: __ZNKSt3__16vectorI7ProcessNS_9allocatorIS1_EEE9__end_capB7v160006Ev, symObjAddr: 0x4974, symBinAddr: 0x100008C04, symSize: 0x28 }
  - { offsetInCU: 0x19718, offset: 0x19718, size: 0x8, addend: 0x0, symName: __ZNKSt3__117__compressed_pairIP7ProcessNS_9allocatorIS1_EEE5firstB7v160006Ev, symObjAddr: 0x499C, symBinAddr: 0x100008C2C, symSize: 0x24 }
  - { offsetInCU: 0x1973E, offset: 0x1973E, size: 0x8, addend: 0x0, symName: __ZNKSt3__122__compressed_pair_elemIP7ProcessLi0ELb0EE5__getB7v160006Ev, symObjAddr: 0x49C0, symBinAddr: 0x100008C50, symSize: 0x14 }
  - { offsetInCU: 0x19764, offset: 0x19764, size: 0x8, addend: 0x0, symName: __ZNKSt3__15dequeIiNS_9allocatorIiEEE13__front_spareB7v160006Ev, symObjAddr: 0x49D4, symBinAddr: 0x100008C64, symSize: 0x18 }
  - { offsetInCU: 0x1978A, offset: 0x1978A, size: 0x8, addend: 0x0, symName: __ZNSt3__15dequeIiNS_9allocatorIiEEE20__add_front_capacityEv, symObjAddr: 0x49EC, symBinAddr: 0x100008C7C, symSize: 0x394 }
  - { offsetInCU: 0x19842, offset: 0x19842, size: 0x8, addend: 0x0, symName: __ZNSt3__116allocator_traitsINS_9allocatorIiEEE9constructB7v160006IiJRKiEvEEvRS2_PT_DpOT0_, symObjAddr: 0x4D80, symBinAddr: 0x100009010, symSize: 0x34 }
  - { offsetInCU: 0x19899, offset: 0x19899, size: 0x8, addend: 0x0, symName: __ZNSt3__116__deque_iteratorIiPiRiPS1_lLl1024EEmmB7v160006Ev, symObjAddr: 0x4DB4, symBinAddr: 0x100009044, symSize: 0x68 }
  - { offsetInCU: 0x198BF, offset: 0x198BF, size: 0x8, addend: 0x0, symName: __ZNKSt3__15dequeIiNS_9allocatorIiEEE12__back_spareB7v160006Ev, symObjAddr: 0x4E1C, symBinAddr: 0x1000090AC, symSize: 0x54 }
  - { offsetInCU: 0x198E5, offset: 0x198E5, size: 0x8, addend: 0x0, symName: __ZNSt3__114__split_bufferIPiNS_9allocatorIS1_EEE4backB7v160006Ev, symObjAddr: 0x4E70, symBinAddr: 0x100009100, symSize: 0x1C }
  - { offsetInCU: 0x1990B, offset: 0x1990B, size: 0x8, addend: 0x0, symName: __ZNSt3__114__split_bufferIPiNS_9allocatorIS1_EEE8pop_backB7v160006Ev, symObjAddr: 0x4E8C, symBinAddr: 0x10000911C, symSize: 0x2C }
  - { offsetInCU: 0x19931, offset: 0x19931, size: 0x8, addend: 0x0, symName: __ZNSt3__114__split_bufferIPiNS_9allocatorIS1_EEE10push_frontERKS1_, symObjAddr: 0x4EB8, symBinAddr: 0x100009148, symSize: 0x25C }
  - { offsetInCU: 0x199AA, offset: 0x199AA, size: 0x8, addend: 0x0, symName: __ZNKSt3__114__split_bufferIPiNS_9allocatorIS1_EEE13__front_spareB7v160006Ev, symObjAddr: 0x5114, symBinAddr: 0x1000093A4, symSize: 0x28 }
  - { offsetInCU: 0x199D0, offset: 0x199D0, size: 0x8, addend: 0x0, symName: __ZNSt3__114__split_bufferIPiNS_9allocatorIS1_EEE10push_frontEOS1_, symObjAddr: 0x513C, symBinAddr: 0x1000093CC, symSize: 0x25C }
  - { offsetInCU: 0x19A49, offset: 0x19A49, size: 0x8, addend: 0x0, symName: __ZNSt3__116allocator_traitsINS_9allocatorIiEEE8allocateB7v160006ERS2_m, symObjAddr: 0x5398, symBinAddr: 0x100009628, symSize: 0x2C }
  - { offsetInCU: 0x19A7C, offset: 0x19A7C, size: 0x8, addend: 0x0, symName: __ZNSt3__114__split_bufferIPiNS_9allocatorIS1_EEE9push_backEOS1_, symObjAddr: 0x53C4, symBinAddr: 0x100009654, symSize: 0x260 }
  - { offsetInCU: 0x19AF5, offset: 0x19AF5, size: 0x8, addend: 0x0, symName: __ZNSt3__114__split_bufferIPiRNS_9allocatorIS1_EEEC1EmmS4_, symObjAddr: 0x5650, symBinAddr: 0x1000098E0, symSize: 0x44 }
  - { offsetInCU: 0x19B50, offset: 0x19B50, size: 0x8, addend: 0x0, symName: __ZNSt3__122__allocator_destructorINS_9allocatorIiEEEC1B7v160006ERS2_m, symObjAddr: 0x5694, symBinAddr: 0x100009924, symSize: 0x3C }
  - { offsetInCU: 0x19C13, offset: 0x19C13, size: 0x8, addend: 0x0, symName: __ZNSt3__110unique_ptrIPiNS_22__allocator_destructorINS_9allocatorIiEEEEEC1B7v160006ILb1EvEES1_NS_16__dependent_typeINS_27__unique_ptr_deleter_sfinaeIS5_EEXT_EE20__good_rval_ref_typeE, symObjAddr: 0x56D0, symBinAddr: 0x100009960, symSize: 0x3C }
  - { offsetInCU: 0x19C64, offset: 0x19C64, size: 0x8, addend: 0x0, symName: __ZNSt3__114__split_bufferIPiRNS_9allocatorIS1_EEE9push_backEOS1_, symObjAddr: 0x570C, symBinAddr: 0x10000999C, symSize: 0x260 }
  - { offsetInCU: 0x19CDD, offset: 0x19CDD, size: 0x8, addend: 0x0, symName: __ZNKSt3__110unique_ptrIPiNS_22__allocator_destructorINS_9allocatorIiEEEEE3getB7v160006Ev, symObjAddr: 0x596C, symBinAddr: 0x100009BFC, symSize: 0x28 }
  - { offsetInCU: 0x19D03, offset: 0x19D03, size: 0x8, addend: 0x0, symName: __ZNSt3__110unique_ptrIPiNS_22__allocator_destructorINS_9allocatorIiEEEEE7releaseB7v160006Ev, symObjAddr: 0x5994, symBinAddr: 0x100009C24, symSize: 0x44 }
  - { offsetInCU: 0x19D38, offset: 0x19D38, size: 0x8, addend: 0x0, symName: __ZNSt3__114__split_bufferIPiRNS_9allocatorIS1_EEE9push_backB7v160006ERKS1_, symObjAddr: 0x59D8, symBinAddr: 0x100009C68, symSize: 0x260 }
  - { offsetInCU: 0x19DB1, offset: 0x19DB1, size: 0x8, addend: 0x0, symName: __ZNSt3__114__split_bufferIPiNS_9allocatorIS1_EEE9__end_capB7v160006Ev, symObjAddr: 0x5C74, symBinAddr: 0x100009F04, symSize: 0x28 }
  - { offsetInCU: 0x19DD7, offset: 0x19DD7, size: 0x8, addend: 0x0, symName: __ZNSt3__114__split_bufferIPiRNS_9allocatorIS1_EEE9__end_capB7v160006Ev, symObjAddr: 0x5C9C, symBinAddr: 0x100009F2C, symSize: 0x28 }
  - { offsetInCU: 0x19DFD, offset: 0x19DFD, size: 0x8, addend: 0x0, symName: __ZNSt3__110unique_ptrIPiNS_22__allocator_destructorINS_9allocatorIiEEEEED1B7v160006Ev, symObjAddr: 0x5CC4, symBinAddr: 0x100009F54, symSize: 0x2C }
  - { offsetInCU: 0x19E27, offset: 0x19E27, size: 0x8, addend: 0x0, symName: __ZNSt3__114__split_bufferIPiRNS_9allocatorIS1_EEED1Ev, symObjAddr: 0x5CF0, symBinAddr: 0x100009F80, symSize: 0x2C }
  - { offsetInCU: 0x19E53, offset: 0x19E53, size: 0x8, addend: 0x0, symName: __ZNKSt3__15dequeIiNS_9allocatorIiEEE10__capacityB7v160006Ev, symObjAddr: 0x5D1C, symBinAddr: 0x100009FAC, symSize: 0x60 }
  - { offsetInCU: 0x19E79, offset: 0x19E79, size: 0x8, addend: 0x0, symName: __ZNSt3__114__split_bufferIPiRNS_9allocatorIS1_EEE18__construct_at_endINS_13move_iteratorIPS1_EEEENS_9enable_ifIXsr27__is_cpp17_forward_iteratorIT_EE5valueEvE4typeESB_SB_, symObjAddr: 0x5DBC, symBinAddr: 0x10000A04C, symSize: 0xFC }
  - { offsetInCU: 0x19ED5, offset: 0x19ED5, size: 0x8, addend: 0x0, symName: __ZNSt3__113move_iteratorIPPiEC1B7v160006ES2_, symObjAddr: 0x5EB8, symBinAddr: 0x10000A148, symSize: 0x34 }
  - { offsetInCU: 0x19F0D, offset: 0x19F0D, size: 0x8, addend: 0x0, symName: __ZNSt3__116allocator_traitsINS_9allocatorIPiEEE9constructB7v160006IS2_JRKS2_EvEEvRS3_PT_DpOT0_, symObjAddr: 0x5EEC, symBinAddr: 0x10000A17C, symSize: 0x34 }
  - { offsetInCU: 0x19F87, offset: 0x19F87, size: 0x8, addend: 0x0, symName: __ZNKSt3__123__move_backward_trivialclB7v160006IPiS2_Li0EEENS_4pairIPT_PT0_EES5_S5_S7_, symObjAddr: 0x60BC, symBinAddr: 0x10000A34C, symSize: 0x48 }
  - { offsetInCU: 0x19FEF, offset: 0x19FEF, size: 0x8, addend: 0x0, symName: __ZNSt3__14pairIPPiS2_EC1B7v160006IRS2_S5_LPv0EEEOT_OT0_, symObjAddr: 0x6294, symBinAddr: 0x10000A524, symSize: 0x3C }
  - { offsetInCU: 0x1A04D, offset: 0x1A04D, size: 0x8, addend: 0x0, symName: __ZNSt3__14pairIPPiS2_EC2B7v160006IRS2_S5_LPv0EEEOT_OT0_, symObjAddr: 0x62D0, symBinAddr: 0x10000A560, symSize: 0x34 }
  - { offsetInCU: 0x1A0AB, offset: 0x1A0AB, size: 0x8, addend: 0x0, symName: __ZNSt3__118__unwrap_iter_implIPPiLb1EE8__unwrapB7v160006ES2_, symObjAddr: 0x6304, symBinAddr: 0x10000A594, symSize: 0x24 }
  - { offsetInCU: 0x1A0D3, offset: 0x1A0D3, size: 0x8, addend: 0x0, symName: __ZNSt3__14pairIPPiS2_EC1B7v160006IS2_S2_LPv0EEEOT_OT0_, symObjAddr: 0x6328, symBinAddr: 0x10000A5B8, symSize: 0x3C }
  - { offsetInCU: 0x1A131, offset: 0x1A131, size: 0x8, addend: 0x0, symName: __ZNSt3__14pairIPPiS2_EC2B7v160006IS2_S2_LPv0EEEOT_OT0_, symObjAddr: 0x6364, symBinAddr: 0x10000A5F4, symSize: 0x34 }
  - { offsetInCU: 0x1A18F, offset: 0x1A18F, size: 0x8, addend: 0x0, symName: __ZNSt3__118__unwrap_iter_implIPPiLb1EE8__rewrapB7v160006ES2_S2_, symObjAddr: 0x6398, symBinAddr: 0x10000A628, symSize: 0x50 }
  - { offsetInCU: 0x1A1CA, offset: 0x1A1CA, size: 0x8, addend: 0x0, symName: __ZNSt3__114__split_bufferIPiRNS_9allocatorIS1_EEE21_ConstructTransactionC1B7v160006EPPS1_m, symObjAddr: 0x6424, symBinAddr: 0x10000A6B4, symSize: 0x3C }
  - { offsetInCU: 0x1A210, offset: 0x1A210, size: 0x8, addend: 0x0, symName: __ZNSt3__116allocator_traitsINS_9allocatorIPiEEE9constructB7v160006IS2_JS2_EvEEvRS3_PT_DpOT0_, symObjAddr: 0x6460, symBinAddr: 0x10000A6F0, symSize: 0x34 }
  - { offsetInCU: 0x1A267, offset: 0x1A267, size: 0x8, addend: 0x0, symName: __ZNSt3__114__split_bufferIPiRNS_9allocatorIS1_EEE7__allocB7v160006Ev, symObjAddr: 0x6494, symBinAddr: 0x10000A724, symSize: 0x28 }
  - { offsetInCU: 0x1A28D, offset: 0x1A28D, size: 0x8, addend: 0x0, symName: __ZNKSt3__113move_iteratorIPPiEdeB7v160006Ev, symObjAddr: 0x64BC, symBinAddr: 0x10000A74C, symSize: 0x18 }
  - { offsetInCU: 0x1A2B3, offset: 0x1A2B3, size: 0x8, addend: 0x0, symName: __ZNSt3__113move_iteratorIPPiEppB7v160006Ev, symObjAddr: 0x64D4, symBinAddr: 0x10000A764, symSize: 0x20 }
  - { offsetInCU: 0x1A2D9, offset: 0x1A2D9, size: 0x8, addend: 0x0, symName: __ZNSt3__114__split_bufferIPiRNS_9allocatorIS1_EEE21_ConstructTransactionD1B7v160006Ev, symObjAddr: 0x64F4, symBinAddr: 0x10000A784, symSize: 0x2C }
  - { offsetInCU: 0x1A303, offset: 0x1A303, size: 0x8, addend: 0x0, symName: __ZNKSt3__113move_iteratorIPPiE4baseB7v160006Ev, symObjAddr: 0x6598, symBinAddr: 0x10000A828, symSize: 0x18 }
  - { offsetInCU: 0x1A329, offset: 0x1A329, size: 0x8, addend: 0x0, symName: __ZNSt3__114__split_bufferIPiRNS_9allocatorIS1_EEE21_ConstructTransactionC2B7v160006EPPS1_m, symObjAddr: 0x65B0, symBinAddr: 0x10000A840, symSize: 0x44 }
  - { offsetInCU: 0x1A36F, offset: 0x1A36F, size: 0x8, addend: 0x0, symName: __ZNSt3__19allocatorIPiE9constructB7v160006IS1_JS1_EEEvPT_DpOT0_, symObjAddr: 0x65F4, symBinAddr: 0x10000A884, symSize: 0x28 }
  - { offsetInCU: 0x1A3C5, offset: 0x1A3C5, size: 0x8, addend: 0x0, symName: __ZNSt3__117__compressed_pairIPPiRNS_9allocatorIS1_EEE6secondB7v160006Ev, symObjAddr: 0x661C, symBinAddr: 0x10000A8AC, symSize: 0x28 }
  - { offsetInCU: 0x1A3EB, offset: 0x1A3EB, size: 0x8, addend: 0x0, symName: __ZNSt3__122__compressed_pair_elemIRNS_9allocatorIPiEELi1ELb0EE5__getB7v160006Ev, symObjAddr: 0x6644, symBinAddr: 0x10000A8D4, symSize: 0x18 }
  - { offsetInCU: 0x1A411, offset: 0x1A411, size: 0x8, addend: 0x0, symName: __ZNSt3__114__split_bufferIPiRNS_9allocatorIS1_EEE21_ConstructTransactionD2B7v160006Ev, symObjAddr: 0x665C, symBinAddr: 0x10000A8EC, symSize: 0x20 }
  - { offsetInCU: 0x1A43B, offset: 0x1A43B, size: 0x8, addend: 0x0, symName: __ZNSt3__113move_iteratorIPPiEC2B7v160006ES2_, symObjAddr: 0x667C, symBinAddr: 0x10000A90C, symSize: 0x20 }
  - { offsetInCU: 0x1A473, offset: 0x1A473, size: 0x8, addend: 0x0, symName: __ZNSt3__19allocatorIPiE9constructB7v160006IS1_JRKS1_EEEvPT_DpOT0_, symObjAddr: 0x669C, symBinAddr: 0x10000A92C, symSize: 0x28 }
  - { offsetInCU: 0x1A4C9, offset: 0x1A4C9, size: 0x8, addend: 0x0, symName: __ZNSt3__19allocatorIiE8allocateB7v160006Em, symObjAddr: 0x66C4, symBinAddr: 0x10000A954, symSize: 0x58 }
  - { offsetInCU: 0x1A507, offset: 0x1A507, size: 0x8, addend: 0x0, symName: __ZNSt3__116allocator_traitsINS_9allocatorIiEEE8max_sizeB7v160006IS2_vEEmRKS2_, symObjAddr: 0x671C, symBinAddr: 0x10000A9AC, symSize: 0x24 }
  - { offsetInCU: 0x1A535, offset: 0x1A535, size: 0x8, addend: 0x0, symName: __ZNKSt3__19allocatorIiE8max_sizeB7v160006Ev, symObjAddr: 0x679C, symBinAddr: 0x10000AA2C, symSize: 0x14 }
  - { offsetInCU: 0x1A565, offset: 0x1A565, size: 0x8, addend: 0x0, symName: __ZNKSt3__114__move_trivialclB7v160006IPiS2_Li0EEENS_4pairIPT_PT0_EES5_S5_S7_, symObjAddr: 0x6950, symBinAddr: 0x10000ABE0, symSize: 0x48 }
  - { offsetInCU: 0x1A5CD, offset: 0x1A5CD, size: 0x8, addend: 0x0, symName: __ZNSt3__14pairIPPiS2_EC1B7v160006IRS2_S2_LPv0EEEOT_OT0_, symObjAddr: 0x6A54, symBinAddr: 0x10000ACE4, symSize: 0x3C }
  - { offsetInCU: 0x1A62B, offset: 0x1A62B, size: 0x8, addend: 0x0, symName: __ZNSt3__14pairIPPiS2_EC2B7v160006IRS2_S2_LPv0EEEOT_OT0_, symObjAddr: 0x6A90, symBinAddr: 0x10000AD20, symSize: 0x34 }
  - { offsetInCU: 0x1A693, offset: 0x1A693, size: 0x8, addend: 0x0, symName: __ZNKSt3__16__lessImmEclB7v160006ERKmS3_, symObjAddr: 0x6B18, symBinAddr: 0x10000ADA8, symSize: 0x34 }
  - { offsetInCU: 0x1A6D5, offset: 0x1A6D5, size: 0x8, addend: 0x0, symName: __ZNSt3__114__split_bufferIPiRNS_9allocatorIS1_EEEC2EmmS4_, symObjAddr: 0x6B4C, symBinAddr: 0x10000ADDC, symSize: 0xD4 }
  - { offsetInCU: 0x1A749, offset: 0x1A749, size: 0x8, addend: 0x0, symName: __ZNSt3__117__compressed_pairIPPiRNS_9allocatorIS1_EEEC1B7v160006IDnS5_EEOT_OT0_, symObjAddr: 0x6C20, symBinAddr: 0x10000AEB0, symSize: 0x3C }
  - { offsetInCU: 0x1A7A1, offset: 0x1A7A1, size: 0x8, addend: 0x0, symName: __ZNSt3__117__compressed_pairIPPiRNS_9allocatorIS1_EEEC2B7v160006IDnS5_EEOT_OT0_, symObjAddr: 0x6C9C, symBinAddr: 0x10000AF2C, symSize: 0x48 }
  - { offsetInCU: 0x1A7F9, offset: 0x1A7F9, size: 0x8, addend: 0x0, symName: __ZNSt3__122__compressed_pair_elemIRNS_9allocatorIPiEELi1ELb0EEC2B7v160006IS4_vEEOT_, symObjAddr: 0x6CE4, symBinAddr: 0x10000AF74, symSize: 0x20 }
  - { offsetInCU: 0x1A83B, offset: 0x1A83B, size: 0x8, addend: 0x0, symName: __ZNSt3__19allocatorIPiE8allocateB7v160006Em, symObjAddr: 0x6D04, symBinAddr: 0x10000AF94, symSize: 0x58 }
  - { offsetInCU: 0x1A879, offset: 0x1A879, size: 0x8, addend: 0x0, symName: __ZNSt3__116allocator_traitsINS_9allocatorIPiEEE8max_sizeB7v160006IS3_vEEmRKS3_, symObjAddr: 0x6D5C, symBinAddr: 0x10000AFEC, symSize: 0x24 }
  - { offsetInCU: 0x1A8A7, offset: 0x1A8A7, size: 0x8, addend: 0x0, symName: __ZNKSt3__19allocatorIPiE8max_sizeB7v160006Ev, symObjAddr: 0x6D80, symBinAddr: 0x10000B010, symSize: 0x14 }
  - { offsetInCU: 0x1A8CD, offset: 0x1A8CD, size: 0x8, addend: 0x0, symName: __ZNSt3__122__allocator_destructorINS_9allocatorIiEEEC2B7v160006ERS2_m, symObjAddr: 0x6D94, symBinAddr: 0x10000B024, symSize: 0x2C }
  - { offsetInCU: 0x1A913, offset: 0x1A913, size: 0x8, addend: 0x0, symName: __ZNSt3__110unique_ptrIPiNS_22__allocator_destructorINS_9allocatorIiEEEEEC2B7v160006ILb1EvEES1_NS_16__dependent_typeINS_27__unique_ptr_deleter_sfinaeIS5_EEXT_EE20__good_rval_ref_typeE, symObjAddr: 0x6DC0, symBinAddr: 0x10000B050, symSize: 0x48 }
  - { offsetInCU: 0x1A964, offset: 0x1A964, size: 0x8, addend: 0x0, symName: __ZNSt3__117__compressed_pairIPiNS_22__allocator_destructorINS_9allocatorIiEEEEEC1B7v160006IRS1_S5_EEOT_OT0_, symObjAddr: 0x6E08, symBinAddr: 0x10000B098, symSize: 0x3C }
  - { offsetInCU: 0x1A9BC, offset: 0x1A9BC, size: 0x8, addend: 0x0, symName: __ZNSt3__117__compressed_pairIPiNS_22__allocator_destructorINS_9allocatorIiEEEEEC2B7v160006IRS1_S5_EEOT_OT0_, symObjAddr: 0x6E44, symBinAddr: 0x10000B0D4, symSize: 0x48 }
  - { offsetInCU: 0x1AA14, offset: 0x1AA14, size: 0x8, addend: 0x0, symName: __ZNSt3__122__compressed_pair_elemIPiLi0ELb0EEC2B7v160006IRS1_vEEOT_, symObjAddr: 0x6E8C, symBinAddr: 0x10000B11C, symSize: 0x24 }
  - { offsetInCU: 0x1AA56, offset: 0x1AA56, size: 0x8, addend: 0x0, symName: __ZNSt3__122__compressed_pair_elemINS_22__allocator_destructorINS_9allocatorIiEEEELi1ELb0EEC2B7v160006IS4_vEEOT_, symObjAddr: 0x6EB0, symBinAddr: 0x10000B140, symSize: 0x24 }
  - { offsetInCU: 0x1AA98, offset: 0x1AA98, size: 0x8, addend: 0x0, symName: __ZNKSt3__117__compressed_pairIPiNS_22__allocator_destructorINS_9allocatorIiEEEEE5firstB7v160006Ev, symObjAddr: 0x6ED4, symBinAddr: 0x10000B164, symSize: 0x24 }
  - { offsetInCU: 0x1AABE, offset: 0x1AABE, size: 0x8, addend: 0x0, symName: __ZNKSt3__122__compressed_pair_elemIPiLi0ELb0EE5__getB7v160006Ev, symObjAddr: 0x6EF8, symBinAddr: 0x10000B188, symSize: 0x14 }
  - { offsetInCU: 0x1AAE4, offset: 0x1AAE4, size: 0x8, addend: 0x0, symName: __ZNSt3__117__compressed_pairIPiNS_22__allocator_destructorINS_9allocatorIiEEEEE5firstB7v160006Ev, symObjAddr: 0x6F0C, symBinAddr: 0x10000B19C, symSize: 0x24 }
  - { offsetInCU: 0x1AB0A, offset: 0x1AB0A, size: 0x8, addend: 0x0, symName: __ZNSt3__122__compressed_pair_elemIPiLi0ELb0EE5__getB7v160006Ev, symObjAddr: 0x6F30, symBinAddr: 0x10000B1C0, symSize: 0x14 }
  - { offsetInCU: 0x1AB30, offset: 0x1AB30, size: 0x8, addend: 0x0, symName: __ZNSt3__117__compressed_pairIPPiNS_9allocatorIS1_EEE5firstB7v160006Ev, symObjAddr: 0x6F44, symBinAddr: 0x10000B1D4, symSize: 0x24 }
  - { offsetInCU: 0x1AB56, offset: 0x1AB56, size: 0x8, addend: 0x0, symName: __ZNSt3__122__compressed_pair_elemIPPiLi0ELb0EE5__getB7v160006Ev, symObjAddr: 0x6F68, symBinAddr: 0x10000B1F8, symSize: 0x14 }
  - { offsetInCU: 0x1AB7C, offset: 0x1AB7C, size: 0x8, addend: 0x0, symName: __ZNSt3__117__compressed_pairIPPiRNS_9allocatorIS1_EEE5firstB7v160006Ev, symObjAddr: 0x6F7C, symBinAddr: 0x10000B20C, symSize: 0x24 }
  - { offsetInCU: 0x1ABA2, offset: 0x1ABA2, size: 0x8, addend: 0x0, symName: __ZNSt3__110unique_ptrIPiNS_22__allocator_destructorINS_9allocatorIiEEEEED2B7v160006Ev, symObjAddr: 0x6FA0, symBinAddr: 0x10000B230, symSize: 0x30 }
  - { offsetInCU: 0x1ABCC, offset: 0x1ABCC, size: 0x8, addend: 0x0, symName: __ZNSt3__110unique_ptrIPiNS_22__allocator_destructorINS_9allocatorIiEEEEE5resetB7v160006ES1_, symObjAddr: 0x6FD0, symBinAddr: 0x10000B260, symSize: 0x78 }
  - { offsetInCU: 0x1AC10, offset: 0x1AC10, size: 0x8, addend: 0x0, symName: __ZNSt3__117__compressed_pairIPiNS_22__allocator_destructorINS_9allocatorIiEEEEE6secondB7v160006Ev, symObjAddr: 0x7048, symBinAddr: 0x10000B2D8, symSize: 0x28 }
  - { offsetInCU: 0x1AC36, offset: 0x1AC36, size: 0x8, addend: 0x0, symName: __ZNSt3__122__allocator_destructorINS_9allocatorIiEEEclB7v160006EPi, symObjAddr: 0x7070, symBinAddr: 0x10000B300, symSize: 0x34 }
  - { offsetInCU: 0x1AC6A, offset: 0x1AC6A, size: 0x8, addend: 0x0, symName: __ZNSt3__122__compressed_pair_elemINS_22__allocator_destructorINS_9allocatorIiEEEELi1ELb0EE5__getB7v160006Ev, symObjAddr: 0x70A4, symBinAddr: 0x10000B334, symSize: 0x14 }
  - { offsetInCU: 0x1AC90, offset: 0x1AC90, size: 0x8, addend: 0x0, symName: __ZNSt3__114__split_bufferIPiRNS_9allocatorIS1_EEED2Ev, symObjAddr: 0x70B8, symBinAddr: 0x10000B348, symSize: 0x8C }
  - { offsetInCU: 0x1ACBC, offset: 0x1ACBC, size: 0x8, addend: 0x0, symName: __ZNSt3__114__split_bufferIPiRNS_9allocatorIS1_EEE5clearB7v160006Ev, symObjAddr: 0x7144, symBinAddr: 0x10000B3D4, symSize: 0x28 }
  - { offsetInCU: 0x1ACE2, offset: 0x1ACE2, size: 0x8, addend: 0x0, symName: __ZNKSt3__114__split_bufferIPiRNS_9allocatorIS1_EEE8capacityB7v160006Ev, symObjAddr: 0x716C, symBinAddr: 0x10000B3FC, symSize: 0x40 }
  - { offsetInCU: 0x1AD08, offset: 0x1AD08, size: 0x8, addend: 0x0, symName: __ZNSt3__114__split_bufferIPiRNS_9allocatorIS1_EEE17__destruct_at_endB7v160006EPS1_, symObjAddr: 0x71AC, symBinAddr: 0x10000B43C, symSize: 0x2C }
  - { offsetInCU: 0x1AD3C, offset: 0x1AD3C, size: 0x8, addend: 0x0, symName: __ZNSt3__114__split_bufferIPiRNS_9allocatorIS1_EEE17__destruct_at_endB7v160006EPS1_NS_17integral_constantIbLb0EEE, symObjAddr: 0x71D8, symBinAddr: 0x10000B468, symSize: 0x80 }
  - { offsetInCU: 0x1AD7C, offset: 0x1AD7C, size: 0x8, addend: 0x0, symName: __ZNKSt3__114__split_bufferIPiRNS_9allocatorIS1_EEE9__end_capB7v160006Ev, symObjAddr: 0x7258, symBinAddr: 0x10000B4E8, symSize: 0x28 }
  - { offsetInCU: 0x1ADA2, offset: 0x1ADA2, size: 0x8, addend: 0x0, symName: __ZNKSt3__117__compressed_pairIPPiRNS_9allocatorIS1_EEE5firstB7v160006Ev, symObjAddr: 0x7280, symBinAddr: 0x10000B510, symSize: 0x24 }
  - { offsetInCU: 0x1ADC8, offset: 0x1ADC8, size: 0x8, addend: 0x0, symName: __ZNSt3__19allocatorIiE9constructB7v160006IiJRKiEEEvPT_DpOT0_, symObjAddr: 0x72A4, symBinAddr: 0x10000B534, symSize: 0x28 }
  - { offsetInCU: 0x1AE1E, offset: 0x1AE1E, size: 0x8, addend: 0x0, symName: __ZNSt3__15dequeIiNS_9allocatorIiEEEC2ERKS3_, symObjAddr: 0x72CC, symBinAddr: 0x10000B55C, symSize: 0xEC }
  - { offsetInCU: 0x1AE59, offset: 0x1AE59, size: 0x8, addend: 0x0, symName: __ZNSt3__116allocator_traitsINS_9allocatorIiEEE37select_on_container_copy_constructionB7v160006IS2_vvEES2_RKS2_, symObjAddr: 0x73B8, symBinAddr: 0x10000B648, symSize: 0x10 }
  - { offsetInCU: 0x1AE88, offset: 0x1AE88, size: 0x8, addend: 0x0, symName: __ZNKSt3__15dequeIiNS_9allocatorIiEEE7__allocB7v160006Ev, symObjAddr: 0x73C8, symBinAddr: 0x10000B658, symSize: 0x28 }
  - { offsetInCU: 0x1AEAE, offset: 0x1AEAE, size: 0x8, addend: 0x0, symName: __ZNSt3__19allocatorIPiEC1B7v160006IiEERKNS0_IT_EE, symObjAddr: 0x73F0, symBinAddr: 0x10000B680, symSize: 0x34 }
  - { offsetInCU: 0x1AEEB, offset: 0x1AEEB, size: 0x8, addend: 0x0, symName: __ZNSt3__114__split_bufferIPiNS_9allocatorIS1_EEEC1ERKS3_, symObjAddr: 0x7424, symBinAddr: 0x10000B6B4, symSize: 0x34 }
  - { offsetInCU: 0x1AF25, offset: 0x1AF25, size: 0x8, addend: 0x0, symName: __ZNSt3__117__compressed_pairImNS_9allocatorIiEEEC1B7v160006IiRNS1_IPiEEEEOT_OT0_, symObjAddr: 0x7458, symBinAddr: 0x10000B6E8, symSize: 0x3C }
  - { offsetInCU: 0x1AF7D, offset: 0x1AF7D, size: 0x8, addend: 0x0, symName: __ZNSt3__15dequeIiNS_9allocatorIiEEE8__appendINS_16__deque_iteratorIiPKiRS6_PKS7_lLl1024EEEEEvT_SC_PNS_9enable_ifIXsr27__is_cpp17_forward_iteratorISC_EE5valueEvE4typeE, symObjAddr: 0x7494, symBinAddr: 0x10000B724, symSize: 0x248 }
  - { offsetInCU: 0x1B06C, offset: 0x1B06C, size: 0x8, addend: 0x0, symName: __ZNKSt3__15dequeIiNS_9allocatorIiEEE5beginB7v160006Ev, symObjAddr: 0x76DC, symBinAddr: 0x10000B96C, symSize: 0xA8 }
  - { offsetInCU: 0x1B0A1, offset: 0x1B0A1, size: 0x8, addend: 0x0, symName: __ZNKSt3__15dequeIiNS_9allocatorIiEEE3endB7v160006Ev, symObjAddr: 0x7784, symBinAddr: 0x10000BA14, symSize: 0xBC }
  - { offsetInCU: 0x1B0E5, offset: 0x1B0E5, size: 0x8, addend: 0x0, symName: __ZNKSt3__117__compressed_pairImNS_9allocatorIiEEE6secondB7v160006Ev, symObjAddr: 0x7840, symBinAddr: 0x10000BAD0, symSize: 0x24 }
  - { offsetInCU: 0x1B10B, offset: 0x1B10B, size: 0x8, addend: 0x0, symName: __ZNKSt3__122__compressed_pair_elemINS_9allocatorIiEELi1ELb1EE5__getB7v160006Ev, symObjAddr: 0x7864, symBinAddr: 0x10000BAF4, symSize: 0x14 }
  - { offsetInCU: 0x1B131, offset: 0x1B131, size: 0x8, addend: 0x0, symName: __ZNSt3__19allocatorIPiEC2B7v160006IiEERKNS0_IT_EE, symObjAddr: 0x7878, symBinAddr: 0x10000BB08, symSize: 0x30 }
  - { offsetInCU: 0x1B16E, offset: 0x1B16E, size: 0x8, addend: 0x0, symName: __ZNSt3__114__split_bufferIPiNS_9allocatorIS1_EEEC2ERKS3_, symObjAddr: 0x78A8, symBinAddr: 0x10000BB38, symSize: 0x4C }
  - { offsetInCU: 0x1B1A8, offset: 0x1B1A8, size: 0x8, addend: 0x0, symName: __ZNSt3__117__compressed_pairIPPiNS_9allocatorIS1_EEEC1B7v160006IDnRKS4_EEOT_OT0_, symObjAddr: 0x78F4, symBinAddr: 0x10000BB84, symSize: 0x3C }
  - { offsetInCU: 0x1B200, offset: 0x1B200, size: 0x8, addend: 0x0, symName: __ZNSt3__117__compressed_pairIPPiNS_9allocatorIS1_EEEC2B7v160006IDnRKS4_EEOT_OT0_, symObjAddr: 0x7930, symBinAddr: 0x10000BBC0, symSize: 0x44 }
  - { offsetInCU: 0x1B258, offset: 0x1B258, size: 0x8, addend: 0x0, symName: __ZNSt3__122__compressed_pair_elemINS_9allocatorIPiEELi1ELb1EEC2B7v160006IRKS3_vEEOT_, symObjAddr: 0x7974, symBinAddr: 0x10000BC04, symSize: 0x18 }
  - { offsetInCU: 0x1B29A, offset: 0x1B29A, size: 0x8, addend: 0x0, symName: __ZNSt3__117__compressed_pairImNS_9allocatorIiEEEC2B7v160006IiRNS1_IPiEEEEOT_OT0_, symObjAddr: 0x798C, symBinAddr: 0x10000BC1C, symSize: 0x44 }
  - { offsetInCU: 0x1B2F2, offset: 0x1B2F2, size: 0x8, addend: 0x0, symName: __ZNSt3__122__compressed_pair_elemINS_9allocatorIiEELi1ELb1EEC2B7v160006IRNS1_IPiEEvEEOT_, symObjAddr: 0x79D0, symBinAddr: 0x10000BC60, symSize: 0x34 }
  - { offsetInCU: 0x1B334, offset: 0x1B334, size: 0x8, addend: 0x0, symName: __ZNSt3__19allocatorIiEC2B7v160006IPiEERKNS0_IT_EE, symObjAddr: 0x7A04, symBinAddr: 0x10000BC94, symSize: 0x30 }
  - { offsetInCU: 0x1B371, offset: 0x1B371, size: 0x8, addend: 0x0, symName: __ZNSt3__15dequeIiNS_9allocatorIiEEE19__add_back_capacityEm, symObjAddr: 0x7A80, symBinAddr: 0x10000BD10, symSize: 0x5B8 }
  - { offsetInCU: 0x1B476, offset: 0x1B476, size: 0x8, addend: 0x0, symName: __ZNKSt3__116__deque_iteratorIiPiRiPS1_lLl1024EEplB7v160006El, symObjAddr: 0x8038, symBinAddr: 0x10000C2C8, symSize: 0x40 }
  - { offsetInCU: 0x1B4DD, offset: 0x1B4DD, size: 0x8, addend: 0x0, symName: __ZNSt3__15dequeIiNS_9allocatorIiEEE13__deque_rangeC1B7v160006ENS_16__deque_iteratorIiPiRiPS6_lLl1024EEES9_, symObjAddr: 0x8078, symBinAddr: 0x10000C308, symSize: 0x4C }
  - { offsetInCU: 0x1B525, offset: 0x1B525, size: 0x8, addend: 0x0, symName: __ZNKSt3__15dequeIiNS_9allocatorIiEEE13__deque_range5beginB7v160006Ev, symObjAddr: 0x80C4, symBinAddr: 0x10000C354, symSize: 0x24 }
  - { offsetInCU: 0x1B54B, offset: 0x1B54B, size: 0x8, addend: 0x0, symName: __ZNKSt3__15dequeIiNS_9allocatorIiEEE13__deque_range3endB7v160006Ev, symObjAddr: 0x80E8, symBinAddr: 0x10000C378, symSize: 0x50 }
  - { offsetInCU: 0x1B571, offset: 0x1B571, size: 0x8, addend: 0x0, symName: __ZNKSt3__15dequeIiNS_9allocatorIiEEE13__deque_rangedeB7v160006Ev, symObjAddr: 0x816C, symBinAddr: 0x10000C3FC, symSize: 0x7C }
  - { offsetInCU: 0x1B5AB, offset: 0x1B5AB, size: 0x8, addend: 0x0, symName: __ZNSt3__15dequeIiNS_9allocatorIiEEE21_ConstructTransactionC1B7v160006EPS3_RNS3_19__deque_block_rangeE, symObjAddr: 0x81E8, symBinAddr: 0x10000C478, symSize: 0x3C }
  - { offsetInCU: 0x1B5F3, offset: 0x1B5F3, size: 0x8, addend: 0x0, symName: __ZNKSt3__116__deque_iteratorIiPKiRS1_PKS2_lLl1024EEdeB7v160006Ev, symObjAddr: 0x8238, symBinAddr: 0x10000C4C8, symSize: 0x18 }
  - { offsetInCU: 0x1B619, offset: 0x1B619, size: 0x8, addend: 0x0, symName: __ZNSt3__116__deque_iteratorIiPKiRS1_PKS2_lLl1024EEppB7v160006Ev, symObjAddr: 0x8250, symBinAddr: 0x10000C4E0, symSize: 0x70 }
  - { offsetInCU: 0x1B63F, offset: 0x1B63F, size: 0x8, addend: 0x0, symName: __ZNSt3__15dequeIiNS_9allocatorIiEEE21_ConstructTransactionD1B7v160006Ev, symObjAddr: 0x82C0, symBinAddr: 0x10000C550, symSize: 0x2C }
  - { offsetInCU: 0x1B669, offset: 0x1B669, size: 0x8, addend: 0x0, symName: __ZNSt3__15dequeIiNS_9allocatorIiEEE13__deque_rangeppB7v160006Ev, symObjAddr: 0x82EC, symBinAddr: 0x10000C57C, symSize: 0x64 }
  - { offsetInCU: 0x1B68F, offset: 0x1B68F, size: 0x8, addend: 0x0, symName: __ZNSt3__15dequeIiNS_9allocatorIiEEE18__recommend_blocksB7v160006Em, symObjAddr: 0x8494, symBinAddr: 0x10000C724, symSize: 0x40 }
  - { offsetInCU: 0x1B6B3, offset: 0x1B6B3, size: 0x8, addend: 0x0, symName: __ZNSt3__114__split_bufferIPiNS_9allocatorIS1_EEE9push_backB7v160006ERKS1_, symObjAddr: 0x8500, symBinAddr: 0x10000C790, symSize: 0x260 }
  - { offsetInCU: 0x1B72C, offset: 0x1B72C, size: 0x8, addend: 0x0, symName: __ZNKSt3__114__split_bufferIPiNS_9allocatorIS1_EEE12__back_spareB7v160006Ev, symObjAddr: 0x8760, symBinAddr: 0x10000C9F0, symSize: 0x40 }
  - { offsetInCU: 0x1B752, offset: 0x1B752, size: 0x8, addend: 0x0, symName: __ZNSt3__114__split_bufferIPiRNS_9allocatorIS1_EEE5beginB7v160006Ev, symObjAddr: 0x87A0, symBinAddr: 0x10000CA30, symSize: 0x18 }
  - { offsetInCU: 0x1B778, offset: 0x1B778, size: 0x8, addend: 0x0, symName: __ZNSt3__114__split_bufferIPiRNS_9allocatorIS1_EEE3endB7v160006Ev, symObjAddr: 0x87B8, symBinAddr: 0x10000CA48, symSize: 0x18 }
  - { offsetInCU: 0x1B79E, offset: 0x1B79E, size: 0x8, addend: 0x0, symName: __ZNSt3__114__split_bufferIPiRNS_9allocatorIS1_EEE10push_frontERKS1_, symObjAddr: 0x87D0, symBinAddr: 0x10000CA60, symSize: 0x25C }
  - { offsetInCU: 0x1B817, offset: 0x1B817, size: 0x8, addend: 0x0, symName: __ZNSt3__116__deque_iteratorIiPiRiPS1_lLl1024EEpLB7v160006El, symObjAddr: 0x8A80, symBinAddr: 0x10000CD10, symSize: 0x110 }
  - { offsetInCU: 0x1B86A, offset: 0x1B86A, size: 0x8, addend: 0x0, symName: __ZNSt3__15dequeIiNS_9allocatorIiEEE13__deque_rangeC2B7v160006ENS_16__deque_iteratorIiPiRiPS6_lLl1024EEES9_, symObjAddr: 0x8B90, symBinAddr: 0x10000CE20, symSize: 0x34 }
  - { offsetInCU: 0x1B8B2, offset: 0x1B8B2, size: 0x8, addend: 0x0, symName: __ZNSt3__15dequeIiNS_9allocatorIiEEE19__deque_block_rangeC1B7v160006EPiS5_, symObjAddr: 0x8BF4, symBinAddr: 0x10000CE84, symSize: 0x3C }
  - { offsetInCU: 0x1B8FA, offset: 0x1B8FA, size: 0x8, addend: 0x0, symName: __ZNSt3__15dequeIiNS_9allocatorIiEEE19__deque_block_rangeC2B7v160006EPiS5_, symObjAddr: 0x8C30, symBinAddr: 0x10000CEC0, symSize: 0x2C }
  - { offsetInCU: 0x1B942, offset: 0x1B942, size: 0x8, addend: 0x0, symName: __ZNSt3__15dequeIiNS_9allocatorIiEEE21_ConstructTransactionC2B7v160006EPS3_RNS3_19__deque_block_rangeE, symObjAddr: 0x8C5C, symBinAddr: 0x10000CEEC, symSize: 0x48 }
  - { offsetInCU: 0x1B98A, offset: 0x1B98A, size: 0x8, addend: 0x0, symName: __ZNSt3__15dequeIiNS_9allocatorIiEEE21_ConstructTransactionD2B7v160006Ev, symObjAddr: 0x8CA4, symBinAddr: 0x10000CF34, symSize: 0x5C }
  - { offsetInCU: 0x1B9B4, offset: 0x1B9B4, size: 0x8, addend: 0x0, symName: __ZNKSt3__114__split_bufferIPiNS_9allocatorIS1_EEE5beginB7v160006Ev, symObjAddr: 0x8D00, symBinAddr: 0x10000CF90, symSize: 0x18 }
  - { offsetInCU: 0x1B9DA, offset: 0x1B9DA, size: 0x8, addend: 0x0, symName: __ZNSt3__116__deque_iteratorIiPKiRS1_PKS2_lLl1024EEC1B7v160006ES5_S2_, symObjAddr: 0x8D18, symBinAddr: 0x10000CFA8, symSize: 0x3C }
  - { offsetInCU: 0x1BA22, offset: 0x1BA22, size: 0x8, addend: 0x0, symName: __ZNSt3__116__deque_iteratorIiPKiRS1_PKS2_lLl1024EEC2B7v160006ES5_S2_, symObjAddr: 0x8D54, symBinAddr: 0x10000CFE4, symSize: 0x2C }
  - { offsetInCU: 0x1BA6A, offset: 0x1BA6A, size: 0x8, addend: 0x0, symName: __ZNSt3__15dequeIiNS_9allocatorIiEEE19__add_back_capacityEv, symObjAddr: 0x8D80, symBinAddr: 0x10000D010, symSize: 0x314 }
  - { offsetInCU: 0x1BB22, offset: 0x1BB22, size: 0x8, addend: 0x0, symName: __ZNSt3__116allocator_traitsINS_9allocatorIiEEE9constructB7v160006IiJiEvEEvRS2_PT_DpOT0_, symObjAddr: 0x9094, symBinAddr: 0x10000D324, symSize: 0x34 }
  - { offsetInCU: 0x1BB79, offset: 0x1BB79, size: 0x8, addend: 0x0, symName: __ZNSt3__19allocatorIiE9constructB7v160006IiJiEEEvPT_DpOT0_, symObjAddr: 0x90C8, symBinAddr: 0x10000D358, symSize: 0x28 }
  - { offsetInCU: 0x1BBCF, offset: 0x1BBCF, size: 0x8, addend: 0x0, symName: __ZNSt3__16vectorI7ProcessNS_9allocatorIS1_EEE9__end_capB7v160006Ev, symObjAddr: 0x90F0, symBinAddr: 0x10000D380, symSize: 0x28 }
  - { offsetInCU: 0x1BBF5, offset: 0x1BBF5, size: 0x8, addend: 0x0, symName: __ZNSt3__16vectorI7ProcessNS_9allocatorIS1_EEE22__construct_one_at_endB7v160006IJRKS1_EEEvDpOT_, symObjAddr: 0x9118, symBinAddr: 0x10000D3A8, symSize: 0x90 }
  - { offsetInCU: 0x1BC44, offset: 0x1BC44, size: 0x8, addend: 0x0, symName: __ZNSt3__16vectorI7ProcessNS_9allocatorIS1_EEE21__push_back_slow_pathIRKS1_EEvOT_, symObjAddr: 0x91A8, symBinAddr: 0x10000D438, symSize: 0xD8 }
  - { offsetInCU: 0x1BCA2, offset: 0x1BCA2, size: 0x8, addend: 0x0, symName: __ZNSt3__117__compressed_pairIP7ProcessNS_9allocatorIS1_EEE5firstB7v160006Ev, symObjAddr: 0x9280, symBinAddr: 0x10000D510, symSize: 0x24 }
  - { offsetInCU: 0x1BCC8, offset: 0x1BCC8, size: 0x8, addend: 0x0, symName: __ZNSt3__122__compressed_pair_elemIP7ProcessLi0ELb0EE5__getB7v160006Ev, symObjAddr: 0x92A4, symBinAddr: 0x10000D534, symSize: 0x14 }
  - { offsetInCU: 0x1BD07, offset: 0x1BD07, size: 0x8, addend: 0x0, symName: __ZNSt3__16vectorI7ProcessNS_9allocatorIS1_EEE21_ConstructTransactionC1B7v160006ERS4_m, symObjAddr: 0x92B8, symBinAddr: 0x10000D548, symSize: 0x3C }
  - { offsetInCU: 0x1BD4F, offset: 0x1BD4F, size: 0x8, addend: 0x0, symName: __ZNSt3__116allocator_traitsINS_9allocatorI7ProcessEEE9constructB7v160006IS2_JRKS2_EvEEvRS3_PT_DpOT0_, symObjAddr: 0x92F4, symBinAddr: 0x10000D584, symSize: 0x34 }
  - { offsetInCU: 0x1BDA6, offset: 0x1BDA6, size: 0x8, addend: 0x0, symName: __ZNSt3__16vectorI7ProcessNS_9allocatorIS1_EEE21_ConstructTransactionD1B7v160006Ev, symObjAddr: 0x9328, symBinAddr: 0x10000D5B8, symSize: 0x2C }
  - { offsetInCU: 0x1BDD0, offset: 0x1BDD0, size: 0x8, addend: 0x0, symName: __ZNSt3__16vectorI7ProcessNS_9allocatorIS1_EEE21_ConstructTransactionC2B7v160006ERS4_m, symObjAddr: 0x9354, symBinAddr: 0x10000D5E4, symSize: 0x44 }
  - { offsetInCU: 0x1BE18, offset: 0x1BE18, size: 0x8, addend: 0x0, symName: __ZNSt3__19allocatorI7ProcessE9constructB7v160006IS1_JRKS1_EEEvPT_DpOT0_, symObjAddr: 0x9398, symBinAddr: 0x10000D628, symSize: 0x28 }
  - { offsetInCU: 0x1BE6E, offset: 0x1BE6E, size: 0x8, addend: 0x0, symName: __ZNSt3__16vectorI7ProcessNS_9allocatorIS1_EEE21_ConstructTransactionD2B7v160006Ev, symObjAddr: 0x93C0, symBinAddr: 0x10000D650, symSize: 0x20 }
  - { offsetInCU: 0x1BE98, offset: 0x1BE98, size: 0x8, addend: 0x0, symName: __ZNKSt3__16vectorI7ProcessNS_9allocatorIS1_EEE11__recommendB7v160006Em, symObjAddr: 0x93E0, symBinAddr: 0x10000D670, symSize: 0xB4 }
  - { offsetInCU: 0x1BEED, offset: 0x1BEED, size: 0x8, addend: 0x0, symName: __ZNSt3__114__split_bufferI7ProcessRNS_9allocatorIS1_EEEC1EmmS4_, symObjAddr: 0x9494, symBinAddr: 0x10000D724, symSize: 0x44 }
  - { offsetInCU: 0x1BF43, offset: 0x1BF43, size: 0x8, addend: 0x0, symName: __ZNSt3__114__split_bufferI7ProcessRNS_9allocatorIS1_EEED1Ev, symObjAddr: 0x95F0, symBinAddr: 0x10000D880, symSize: 0x2C }
  - { offsetInCU: 0x1BF6F, offset: 0x1BF6F, size: 0x8, addend: 0x0, symName: __ZNKSt3__16vectorI7ProcessNS_9allocatorIS1_EEE8max_sizeEv, symObjAddr: 0x961C, symBinAddr: 0x10000D8AC, symSize: 0x60 }
  - { offsetInCU: 0x1BF97, offset: 0x1BF97, size: 0x8, addend: 0x0, symName: __ZNKSt3__16vectorI7ProcessNS_9allocatorIS1_EEE20__throw_length_errorB7v160006Ev, symObjAddr: 0x967C, symBinAddr: 0x10000D90C, symSize: 0x1C }
  - { offsetInCU: 0x1BFC7, offset: 0x1BFC7, size: 0x8, addend: 0x0, symName: __ZNSt3__116allocator_traitsINS_9allocatorI7ProcessEEE8max_sizeB7v160006IS3_vEEmRKS3_, symObjAddr: 0x9698, symBinAddr: 0x10000D928, symSize: 0x24 }
  - { offsetInCU: 0x1BFF5, offset: 0x1BFF5, size: 0x8, addend: 0x0, symName: __ZNKSt3__16vectorI7ProcessNS_9allocatorIS1_EEE7__allocB7v160006Ev, symObjAddr: 0x96BC, symBinAddr: 0x10000D94C, symSize: 0x28 }
  - { offsetInCU: 0x1C01B, offset: 0x1C01B, size: 0x8, addend: 0x0, symName: __ZNSt3__114numeric_limitsIlE3maxB7v160006Ev, symObjAddr: 0x96E4, symBinAddr: 0x10000D974, symSize: 0x14 }
  - { offsetInCU: 0x1C02F, offset: 0x1C02F, size: 0x8, addend: 0x0, symName: __ZNKSt3__19allocatorI7ProcessE8max_sizeB7v160006Ev, symObjAddr: 0x96F8, symBinAddr: 0x10000D988, symSize: 0x14 }
  - { offsetInCU: 0x1C055, offset: 0x1C055, size: 0x8, addend: 0x0, symName: __ZNKSt3__117__compressed_pairIP7ProcessNS_9allocatorIS1_EEE6secondB7v160006Ev, symObjAddr: 0x970C, symBinAddr: 0x10000D99C, symSize: 0x24 }
  - { offsetInCU: 0x1C07B, offset: 0x1C07B, size: 0x8, addend: 0x0, symName: __ZNKSt3__122__compressed_pair_elemINS_9allocatorI7ProcessEELi1ELb1EE5__getB7v160006Ev, symObjAddr: 0x9730, symBinAddr: 0x10000D9C0, symSize: 0x14 }
  - { offsetInCU: 0x1C0A1, offset: 0x1C0A1, size: 0x8, addend: 0x0, symName: __ZNSt3__123__libcpp_numeric_limitsIlLb1EE3maxB7v160006Ev, symObjAddr: 0x9744, symBinAddr: 0x10000D9D4, symSize: 0x8 }
  - { offsetInCU: 0x1C0B5, offset: 0x1C0B5, size: 0x8, addend: 0x0, symName: __ZNSt12length_errorC1B7v160006EPKc, symObjAddr: 0x97B0, symBinAddr: 0x10000DA40, symSize: 0x34 }
  - { offsetInCU: 0x1C0ED, offset: 0x1C0ED, size: 0x8, addend: 0x0, symName: __ZNSt12length_errorC2B7v160006EPKc, symObjAddr: 0x97E4, symBinAddr: 0x10000DA74, symSize: 0x4C }
  - { offsetInCU: 0x1C125, offset: 0x1C125, size: 0x8, addend: 0x0, symName: __ZNSt3__114__split_bufferI7ProcessRNS_9allocatorIS1_EEEC2EmmS4_, symObjAddr: 0x9830, symBinAddr: 0x10000DAC0, symSize: 0xD4 }
  - { offsetInCU: 0x1C199, offset: 0x1C199, size: 0x8, addend: 0x0, symName: __ZNSt3__117__compressed_pairIP7ProcessRNS_9allocatorIS1_EEEC1B7v160006IDnS5_EEOT_OT0_, symObjAddr: 0x9904, symBinAddr: 0x10000DB94, symSize: 0x3C }
  - { offsetInCU: 0x1C1F1, offset: 0x1C1F1, size: 0x8, addend: 0x0, symName: __ZNSt3__114__split_bufferI7ProcessRNS_9allocatorIS1_EEE7__allocB7v160006Ev, symObjAddr: 0x9980, symBinAddr: 0x10000DC10, symSize: 0x28 }
  - { offsetInCU: 0x1C217, offset: 0x1C217, size: 0x8, addend: 0x0, symName: __ZNSt3__114__split_bufferI7ProcessRNS_9allocatorIS1_EEE9__end_capB7v160006Ev, symObjAddr: 0x99A8, symBinAddr: 0x10000DC38, symSize: 0x28 }
  - { offsetInCU: 0x1C23D, offset: 0x1C23D, size: 0x8, addend: 0x0, symName: __ZNSt3__117__compressed_pairIP7ProcessRNS_9allocatorIS1_EEEC2B7v160006IDnS5_EEOT_OT0_, symObjAddr: 0x99D0, symBinAddr: 0x10000DC60, symSize: 0x48 }
  - { offsetInCU: 0x1C295, offset: 0x1C295, size: 0x8, addend: 0x0, symName: __ZNSt3__122__compressed_pair_elemIRNS_9allocatorI7ProcessEELi1ELb0EEC2B7v160006IS4_vEEOT_, symObjAddr: 0x9A18, symBinAddr: 0x10000DCA8, symSize: 0x20 }
  - { offsetInCU: 0x1C2D7, offset: 0x1C2D7, size: 0x8, addend: 0x0, symName: __ZNSt3__19allocatorI7ProcessE8allocateB7v160006Em, symObjAddr: 0x9A38, symBinAddr: 0x10000DCC8, symSize: 0x58 }
  - { offsetInCU: 0x1C30B, offset: 0x1C30B, size: 0x8, addend: 0x0, symName: __ZNSt3__117__compressed_pairIP7ProcessRNS_9allocatorIS1_EEE6secondB7v160006Ev, symObjAddr: 0x9A90, symBinAddr: 0x10000DD20, symSize: 0x28 }
  - { offsetInCU: 0x1C331, offset: 0x1C331, size: 0x8, addend: 0x0, symName: __ZNSt3__122__compressed_pair_elemIRNS_9allocatorI7ProcessEELi1ELb0EE5__getB7v160006Ev, symObjAddr: 0x9AB8, symBinAddr: 0x10000DD48, symSize: 0x18 }
  - { offsetInCU: 0x1C357, offset: 0x1C357, size: 0x8, addend: 0x0, symName: __ZNSt3__117__compressed_pairIP7ProcessRNS_9allocatorIS1_EEE5firstB7v160006Ev, symObjAddr: 0x9AD0, symBinAddr: 0x10000DD60, symSize: 0x24 }
  - { offsetInCU: 0x1C37D, offset: 0x1C37D, size: 0x8, addend: 0x0, symName: __ZNSt3__116reverse_iteratorIP7ProcessEC1B7v160006ES2_, symObjAddr: 0x9C20, symBinAddr: 0x10000DEB0, symSize: 0x34 }
  - { offsetInCU: 0x1C3B5, offset: 0x1C3B5, size: 0x8, addend: 0x0, symName: __ZNKSt3__116reverse_iteratorIP7ProcessE4baseB7v160006Ev, symObjAddr: 0x9C54, symBinAddr: 0x10000DEE4, symSize: 0x18 }
  - { offsetInCU: 0x1C3DB, offset: 0x1C3DB, size: 0x8, addend: 0x0, symName: __ZNKSt3__16vectorI7ProcessNS_9allocatorIS1_EEE14__annotate_newB7v160006Em, symObjAddr: 0x9CA8, symBinAddr: 0x10000DF38, symSize: 0xAC }
  - { offsetInCU: 0x1C410, offset: 0x1C410, size: 0x8, addend: 0x0, symName: __ZNSt3__129_AllocatorDestroyRangeReverseINS_9allocatorI7ProcessEENS_16reverse_iteratorIPS2_EEEC1B7v160006ERS3_RS6_S9_, symObjAddr: 0x9DB0, symBinAddr: 0x10000E040, symSize: 0x44 }
  - { offsetInCU: 0x1C46C, offset: 0x1C46C, size: 0x8, addend: 0x0, symName: __ZNSt3__116allocator_traitsINS_9allocatorI7ProcessEEE9constructB7v160006IS2_JS2_EvEEvRS3_PT_DpOT0_, symObjAddr: 0x9E3C, symBinAddr: 0x10000E0CC, symSize: 0x34 }
  - { offsetInCU: 0x1C4C3, offset: 0x1C4C3, size: 0x8, addend: 0x0, symName: __ZNKSt3__116reverse_iteratorIP7ProcessEdeB7v160006Ev, symObjAddr: 0x9E94, symBinAddr: 0x10000E124, symSize: 0x28 }
  - { offsetInCU: 0x1C4F7, offset: 0x1C4F7, size: 0x8, addend: 0x0, symName: __ZNSt3__116reverse_iteratorIP7ProcessEppB7v160006Ev, symObjAddr: 0x9EBC, symBinAddr: 0x10000E14C, symSize: 0x20 }
  - { offsetInCU: 0x1C51D, offset: 0x1C51D, size: 0x8, addend: 0x0, symName: __ZNSt3__128__exception_guard_exceptionsINS_29_AllocatorDestroyRangeReverseINS_9allocatorI7ProcessEENS_16reverse_iteratorIPS3_EEEEE10__completeB7v160006Ev, symObjAddr: 0x9EDC, symBinAddr: 0x10000E16C, symSize: 0x1C }
  - { offsetInCU: 0x1C543, offset: 0x1C543, size: 0x8, addend: 0x0, symName: __ZNSt3__128__exception_guard_exceptionsINS_29_AllocatorDestroyRangeReverseINS_9allocatorI7ProcessEENS_16reverse_iteratorIPS3_EEEEED1B7v160006Ev, symObjAddr: 0x9EF8, symBinAddr: 0x10000E188, symSize: 0x2C }
  - { offsetInCU: 0x1C56D, offset: 0x1C56D, size: 0x8, addend: 0x0, symName: __ZNSt3__128__exception_guard_exceptionsINS_29_AllocatorDestroyRangeReverseINS_9allocatorI7ProcessEENS_16reverse_iteratorIPS3_EEEEEC1B7v160006ES8_, symObjAddr: 0x9F24, symBinAddr: 0x10000E1B4, symSize: 0x34 }
  - { offsetInCU: 0x1C5A6, offset: 0x1C5A6, size: 0x8, addend: 0x0, symName: __ZNSt3__128__exception_guard_exceptionsINS_29_AllocatorDestroyRangeReverseINS_9allocatorI7ProcessEENS_16reverse_iteratorIPS3_EEEEEC2B7v160006ES8_, symObjAddr: 0x9F58, symBinAddr: 0x10000E1E8, symSize: 0x30 }
  - { offsetInCU: 0x1C5DF, offset: 0x1C5DF, size: 0x8, addend: 0x0, symName: __ZNSt3__129_AllocatorDestroyRangeReverseINS_9allocatorI7ProcessEENS_16reverse_iteratorIPS2_EEEC2B7v160006ERS3_RS6_S9_, symObjAddr: 0x9F88, symBinAddr: 0x10000E218, symSize: 0x38 }
  - { offsetInCU: 0x1C636, offset: 0x1C636, size: 0x8, addend: 0x0, symName: __ZNSt3__19allocatorI7ProcessE9constructB7v160006IS1_JS1_EEEvPT_DpOT0_, symObjAddr: 0x9FC0, symBinAddr: 0x10000E250, symSize: 0x28 }
  - { offsetInCU: 0x1C691, offset: 0x1C691, size: 0x8, addend: 0x0, symName: __ZNSt3__119__to_address_helperINS_16reverse_iteratorIP7ProcessEEvE6__callB7v160006ERKS4_, symObjAddr: 0x9FE8, symBinAddr: 0x10000E278, symSize: 0x38 }
  - { offsetInCU: 0x1C6B4, offset: 0x1C6B4, size: 0x8, addend: 0x0, symName: __ZNKSt3__116reverse_iteratorIP7ProcessEptB7v160006Ev, symObjAddr: 0xA020, symBinAddr: 0x10000E2B0, symSize: 0x24 }
  - { offsetInCU: 0x1C6DA, offset: 0x1C6DA, size: 0x8, addend: 0x0, symName: __ZNSt3__128__exception_guard_exceptionsINS_29_AllocatorDestroyRangeReverseINS_9allocatorI7ProcessEENS_16reverse_iteratorIPS3_EEEEED2B7v160006Ev, symObjAddr: 0xA044, symBinAddr: 0x10000E2D4, symSize: 0x50 }
  - { offsetInCU: 0x1C704, offset: 0x1C704, size: 0x8, addend: 0x0, symName: __ZNKSt3__129_AllocatorDestroyRangeReverseINS_9allocatorI7ProcessEENS_16reverse_iteratorIPS2_EEEclB7v160006Ev, symObjAddr: 0xA094, symBinAddr: 0x10000E324, symSize: 0xB4 }
  - { offsetInCU: 0x1C72B, offset: 0x1C72B, size: 0x8, addend: 0x0, symName: __ZNSt3__116reverse_iteratorINS0_IP7ProcessEEEC1B7v160006ES3_, symObjAddr: 0xA1B8, symBinAddr: 0x10000E448, symSize: 0x3C }
  - { offsetInCU: 0x1C763, offset: 0x1C763, size: 0x8, addend: 0x0, symName: __ZNSt3__116reverse_iteratorINS0_IP7ProcessEEEppB7v160006Ev, symObjAddr: 0xA278, symBinAddr: 0x10000E508, symSize: 0x30 }
  - { offsetInCU: 0x1C789, offset: 0x1C789, size: 0x8, addend: 0x0, symName: __ZNKSt3__116reverse_iteratorINS0_IP7ProcessEEE4baseB7v160006Ev, symObjAddr: 0xA2A8, symBinAddr: 0x10000E538, symSize: 0x24 }
  - { offsetInCU: 0x1C7B4, offset: 0x1C7B4, size: 0x8, addend: 0x0, symName: __ZNSt3__119__to_address_helperINS_16reverse_iteratorINS1_IP7ProcessEEEEvE6__callB7v160006ERKS5_, symObjAddr: 0xA2CC, symBinAddr: 0x10000E55C, symSize: 0x38 }
  - { offsetInCU: 0x1C7D7, offset: 0x1C7D7, size: 0x8, addend: 0x0, symName: __ZNKSt3__116reverse_iteratorINS0_IP7ProcessEEEptB7v160006Ev, symObjAddr: 0xA304, symBinAddr: 0x10000E594, symSize: 0x24 }
  - { offsetInCU: 0x1C7FD, offset: 0x1C7FD, size: 0x8, addend: 0x0, symName: __ZNKSt3__116reverse_iteratorINS0_IP7ProcessEEEdeB7v160006Ev, symObjAddr: 0xA328, symBinAddr: 0x10000E5B8, symSize: 0x34 }
  - { offsetInCU: 0x1C831, offset: 0x1C831, size: 0x8, addend: 0x0, symName: __ZNSt3__116reverse_iteratorIP7ProcessEmmB7v160006Ev, symObjAddr: 0xA35C, symBinAddr: 0x10000E5EC, symSize: 0x20 }
  - { offsetInCU: 0x1C857, offset: 0x1C857, size: 0x8, addend: 0x0, symName: __ZNSt3__116reverse_iteratorINS0_IP7ProcessEEEC2B7v160006ES3_, symObjAddr: 0xA37C, symBinAddr: 0x10000E60C, symSize: 0x2C }
  - { offsetInCU: 0x1C88F, offset: 0x1C88F, size: 0x8, addend: 0x0, symName: __ZNSt3__116reverse_iteratorIP7ProcessEC2B7v160006ES2_, symObjAddr: 0xA3A8, symBinAddr: 0x10000E638, symSize: 0x28 }
  - { offsetInCU: 0x1C8C7, offset: 0x1C8C7, size: 0x8, addend: 0x0, symName: __ZNSt3__114__split_bufferI7ProcessRNS_9allocatorIS1_EEED2Ev, symObjAddr: 0xA3D0, symBinAddr: 0x10000E660, symSize: 0x8C }
  - { offsetInCU: 0x1C8F3, offset: 0x1C8F3, size: 0x8, addend: 0x0, symName: __ZNSt3__114__split_bufferI7ProcessRNS_9allocatorIS1_EEE5clearB7v160006Ev, symObjAddr: 0xA45C, symBinAddr: 0x10000E6EC, symSize: 0x28 }
  - { offsetInCU: 0x1C919, offset: 0x1C919, size: 0x8, addend: 0x0, symName: __ZNKSt3__114__split_bufferI7ProcessRNS_9allocatorIS1_EEE8capacityB7v160006Ev, symObjAddr: 0xA484, symBinAddr: 0x10000E714, symSize: 0x40 }
  - { offsetInCU: 0x1C93F, offset: 0x1C93F, size: 0x8, addend: 0x0, symName: __ZNSt3__114__split_bufferI7ProcessRNS_9allocatorIS1_EEE17__destruct_at_endB7v160006EPS1_, symObjAddr: 0xA4C4, symBinAddr: 0x10000E754, symSize: 0x2C }
  - { offsetInCU: 0x1C973, offset: 0x1C973, size: 0x8, addend: 0x0, symName: __ZNSt3__114__split_bufferI7ProcessRNS_9allocatorIS1_EEE17__destruct_at_endB7v160006EPS1_NS_17integral_constantIbLb0EEE, symObjAddr: 0xA4F0, symBinAddr: 0x10000E780, symSize: 0x80 }
  - { offsetInCU: 0x1C9B3, offset: 0x1C9B3, size: 0x8, addend: 0x0, symName: __ZNKSt3__114__split_bufferI7ProcessRNS_9allocatorIS1_EEE9__end_capB7v160006Ev, symObjAddr: 0xA570, symBinAddr: 0x10000E800, symSize: 0x28 }
  - { offsetInCU: 0x1C9D9, offset: 0x1C9D9, size: 0x8, addend: 0x0, symName: __ZNKSt3__117__compressed_pairIP7ProcessRNS_9allocatorIS1_EEE5firstB7v160006Ev, symObjAddr: 0xA598, symBinAddr: 0x10000E828, symSize: 0x24 }
  - { offsetInCU: 0x1C9FF, offset: 0x1C9FF, size: 0x8, addend: 0x0, symName: __ZNSt3__16vectorI7ProcessNS_9allocatorIS1_EEE11__make_iterB7v160006EPS1_, symObjAddr: 0xA5BC, symBinAddr: 0x10000E84C, symSize: 0x34 }
  - { offsetInCU: 0x1CA34, offset: 0x1CA34, size: 0x8, addend: 0x0, symName: __ZNSt3__111__wrap_iterIP7ProcessEC1B7v160006EPKvS2_, symObjAddr: 0xA5F0, symBinAddr: 0x10000E880, symSize: 0x3C }
  - { offsetInCU: 0x1CA7A, offset: 0x1CA7A, size: 0x8, addend: 0x0, symName: __ZNSt3__111__wrap_iterIP7ProcessEC2B7v160006EPKvS2_, symObjAddr: 0xA62C, symBinAddr: 0x10000E8BC, symSize: 0x24 }
  - { offsetInCU: 0x1CAC0, offset: 0x1CAC0, size: 0x8, addend: 0x0, symName: __ZNKSt3__16vectorI7ProcessNS_9allocatorIS1_EEE6cbeginB7v160006Ev, symObjAddr: 0xA698, symBinAddr: 0x10000E928, symSize: 0x2C }
  - { offsetInCU: 0x1CAE6, offset: 0x1CAE6, size: 0x8, addend: 0x0, symName: __ZNSt3__16vectorI7ProcessNS_9allocatorIS1_EEE17__destruct_at_endB7v160006EPS1_, symObjAddr: 0xA6C4, symBinAddr: 0x10000E954, symSize: 0x60 }
  - { offsetInCU: 0x1CB2A, offset: 0x1CB2A, size: 0x8, addend: 0x0, symName: __ZNSt3__16vectorI7ProcessNS_9allocatorIS1_EEE27__invalidate_iterators_pastB7v160006EPS1_, symObjAddr: 0xA764, symBinAddr: 0x10000E9F4, symSize: 0x14 }
  - { offsetInCU: 0x1CB61, offset: 0x1CB61, size: 0x8, addend: 0x0, symName: __ZNKSt3__111__wrap_iterIPK7ProcessE4baseB7v160006Ev, symObjAddr: 0xA778, symBinAddr: 0x10000EA08, symSize: 0x18 }
  - { offsetInCU: 0x1CB87, offset: 0x1CB87, size: 0x8, addend: 0x0, symName: __ZNKSt3__16vectorI7ProcessNS_9allocatorIS1_EEE5beginB7v160006Ev, symObjAddr: 0xA790, symBinAddr: 0x10000EA20, symSize: 0x30 }
  - { offsetInCU: 0x1CBAF, offset: 0x1CBAF, size: 0x8, addend: 0x0, symName: __ZNKSt3__16vectorI7ProcessNS_9allocatorIS1_EEE11__make_iterB7v160006EPKS1_, symObjAddr: 0xA7C0, symBinAddr: 0x10000EA50, symSize: 0x34 }
  - { offsetInCU: 0x1CBE4, offset: 0x1CBE4, size: 0x8, addend: 0x0, symName: __ZNSt3__111__wrap_iterIPK7ProcessEC1B7v160006EPKvS3_, symObjAddr: 0xA7F4, symBinAddr: 0x10000EA84, symSize: 0x3C }
  - { offsetInCU: 0x1CC2A, offset: 0x1CC2A, size: 0x8, addend: 0x0, symName: __ZNSt3__111__wrap_iterIPK7ProcessEC2B7v160006EPKvS3_, symObjAddr: 0xA830, symBinAddr: 0x10000EAC0, symSize: 0x24 }
  - { offsetInCU: 0x1CC70, offset: 0x1CC70, size: 0x8, addend: 0x0, symName: __ZNKSt3__16vectorI7ProcessNS_9allocatorIS1_EEE17__annotate_shrinkB7v160006Em, symObjAddr: 0xA854, symBinAddr: 0x10000EAE4, symSize: 0xB4 }
  - { offsetInCU: 0x1CCC8, offset: 0x1CCC8, size: 0x8, addend: 0x0, symName: __ZNKSt3__111__move_loopINS_17_ClassicAlgPolicyEEclB7v160006IP7ProcessS5_S5_EENS_4pairIT_T1_EES7_T0_S8_, symObjAddr: 0xAAA4, symBinAddr: 0x10000ED34, symSize: 0x90 }
  - { offsetInCU: 0x1CD33, offset: 0x1CD33, size: 0x8, addend: 0x0, symName: __ZNSt3__18_IterOpsINS_17_ClassicAlgPolicyEE11__iter_moveB7v160006IRP7ProcessEENS_9enable_ifIXsr12is_referenceIDTdeclsr3stdE7declvalIRT_EEEEE5valueEDTclsr3stdE4movedeclsr3stdE7declvalIS9_EEEEE4typeEOS8_, symObjAddr: 0xABF8, symBinAddr: 0x10000EE88, symSize: 0x28 }
  - { offsetInCU: 0x1CD5F, offset: 0x1CD5F, size: 0x8, addend: 0x0, symName: __ZNSt3__18_IterOpsINS_17_ClassicAlgPolicyEE25__validate_iter_referenceB7v160006IRP7ProcessEEvv, symObjAddr: 0xAC20, symBinAddr: 0x10000EEB0, symSize: 0x4 }
  - { offsetInCU: 0x1CD7D, offset: 0x1CD7D, size: 0x8, addend: 0x0, symName: __ZNSt3__118__unwrap_iter_implIP7ProcessLb1EE8__unwrapB7v160006ES2_, symObjAddr: 0xAC24, symBinAddr: 0x10000EEB4, symSize: 0x24 }
  - { offsetInCU: 0x1CDA5, offset: 0x1CDA5, size: 0x8, addend: 0x0, symName: __ZNSt3__14pairIP7ProcessS2_EC1B7v160006IS2_S2_LPv0EEEOT_OT0_, symObjAddr: 0xAC48, symBinAddr: 0x10000EED8, symSize: 0x3C }
  - { offsetInCU: 0x1CE03, offset: 0x1CE03, size: 0x8, addend: 0x0, symName: __ZNSt3__14pairIP7ProcessS2_EC2B7v160006IS2_S2_LPv0EEEOT_OT0_, symObjAddr: 0xAC84, symBinAddr: 0x10000EF14, symSize: 0x34 }
  - { offsetInCU: 0x1CE61, offset: 0x1CE61, size: 0x8, addend: 0x0, symName: __ZNSt3__118__unwrap_iter_implIP7ProcessLb1EE8__rewrapB7v160006ES2_S2_, symObjAddr: 0xACB8, symBinAddr: 0x10000EF48, symSize: 0x50 }
  - { offsetInCU: 0x1CE92, offset: 0x1CE92, size: 0x8, addend: 0x0, symName: __ZNSt3__15dequeIiNS_9allocatorIiEEE26__maybe_remove_front_spareB7v160006Eb, symObjAddr: 0xAD08, symBinAddr: 0x10000EF98, symSize: 0xDC }
  - { offsetInCU: 0x1CEC7, offset: 0x1CEC7, size: 0x8, addend: 0x0, symName: __ZNKSt3__15dequeIiNS_9allocatorIiEEE20__front_spare_blocksB7v160006Ev, symObjAddr: 0xADE4, symBinAddr: 0x10000F074, symSize: 0x2C }
  - { offsetInCU: 0x1CEED, offset: 0x1CEED, size: 0x8, addend: 0x0, symName: __ZNSt3__15dequeIyNS_9allocatorIyEEEC2B7v160006Ev, symObjAddr: 0xAE10, symBinAddr: 0x10000F0A0, symSize: 0x50 }
  - { offsetInCU: 0x1CF17, offset: 0x1CF17, size: 0x8, addend: 0x0, symName: __ZNSt3__114__split_bufferIPyNS_9allocatorIS1_EEEC1Ev, symObjAddr: 0xAE60, symBinAddr: 0x10000F0F0, symSize: 0x2C }
  - { offsetInCU: 0x1CF43, offset: 0x1CF43, size: 0x8, addend: 0x0, symName: __ZNSt3__117__compressed_pairImNS_9allocatorIyEEEC1B7v160006IiNS_18__default_init_tagEEEOT_OT0_, symObjAddr: 0xAE8C, symBinAddr: 0x10000F11C, symSize: 0x3C }
  - { offsetInCU: 0x1CF9B, offset: 0x1CF9B, size: 0x8, addend: 0x0, symName: __ZNSt3__114__split_bufferIPyNS_9allocatorIS1_EEEC2Ev, symObjAddr: 0xAEC8, symBinAddr: 0x10000F158, symSize: 0x50 }
  - { offsetInCU: 0x1CFC7, offset: 0x1CFC7, size: 0x8, addend: 0x0, symName: __ZNSt3__117__compressed_pairIPPyNS_9allocatorIS1_EEEC1B7v160006IDnNS_18__default_init_tagEEEOT_OT0_, symObjAddr: 0xAF18, symBinAddr: 0x10000F1A8, symSize: 0x3C }
  - { offsetInCU: 0x1D01F, offset: 0x1D01F, size: 0x8, addend: 0x0, symName: __ZNSt3__117__compressed_pairIPPyNS_9allocatorIS1_EEEC2B7v160006IDnNS_18__default_init_tagEEEOT_OT0_, symObjAddr: 0xAF54, symBinAddr: 0x10000F1E4, symSize: 0x40 }
  - { offsetInCU: 0x1D077, offset: 0x1D077, size: 0x8, addend: 0x0, symName: __ZNSt3__122__compressed_pair_elemIPPyLi0ELb0EEC2B7v160006IDnvEEOT_, symObjAddr: 0xAF94, symBinAddr: 0x10000F224, symSize: 0x1C }
  - { offsetInCU: 0x1D0B9, offset: 0x1D0B9, size: 0x8, addend: 0x0, symName: __ZNSt3__122__compressed_pair_elemINS_9allocatorIPyEELi1ELb1EEC2B7v160006ENS_18__default_init_tagE, symObjAddr: 0xAFB0, symBinAddr: 0x10000F240, symSize: 0x2C }
  - { offsetInCU: 0x1D0ED, offset: 0x1D0ED, size: 0x8, addend: 0x0, symName: __ZNSt3__19allocatorIPyEC2B7v160006Ev, symObjAddr: 0xAFDC, symBinAddr: 0x10000F26C, symSize: 0x2C }
  - { offsetInCU: 0x1D117, offset: 0x1D117, size: 0x8, addend: 0x0, symName: __ZNSt3__116__non_trivial_ifILb1ENS_9allocatorIPyEEEC2B7v160006Ev, symObjAddr: 0xB008, symBinAddr: 0x10000F298, symSize: 0x14 }
  - { offsetInCU: 0x1D141, offset: 0x1D141, size: 0x8, addend: 0x0, symName: __ZNSt3__117__compressed_pairImNS_9allocatorIyEEEC2B7v160006IiNS_18__default_init_tagEEEOT_OT0_, symObjAddr: 0xB01C, symBinAddr: 0x10000F2AC, symSize: 0x40 }
  - { offsetInCU: 0x1D199, offset: 0x1D199, size: 0x8, addend: 0x0, symName: __ZNSt3__122__compressed_pair_elemINS_9allocatorIyEELi1ELb1EEC2B7v160006ENS_18__default_init_tagE, symObjAddr: 0xB05C, symBinAddr: 0x10000F2EC, symSize: 0x2C }
  - { offsetInCU: 0x1D1CD, offset: 0x1D1CD, size: 0x8, addend: 0x0, symName: __ZNSt3__19allocatorIyEC2B7v160006Ev, symObjAddr: 0xB088, symBinAddr: 0x10000F318, symSize: 0x2C }
  - { offsetInCU: 0x1D1F7, offset: 0x1D1F7, size: 0x8, addend: 0x0, symName: __ZNSt3__116__non_trivial_ifILb1ENS_9allocatorIyEEEC2B7v160006Ev, symObjAddr: 0xB0B4, symBinAddr: 0x10000F344, symSize: 0x14 }
  - { offsetInCU: 0x1D221, offset: 0x1D221, size: 0x8, addend: 0x0, symName: __ZNSt3__16vectorI10MemoryItemNS_9allocatorIS1_EEEC2B7v160006Ev, symObjAddr: 0xB0C8, symBinAddr: 0x10000F358, symSize: 0x58 }
  - { offsetInCU: 0x1D24B, offset: 0x1D24B, size: 0x8, addend: 0x0, symName: __ZNSt3__117__compressed_pairIP10MemoryItemNS_9allocatorIS1_EEEC1B7v160006IDnNS_18__default_init_tagEEEOT_OT0_, symObjAddr: 0xB120, symBinAddr: 0x10000F3B0, symSize: 0x3C }
  - { offsetInCU: 0x1D2A3, offset: 0x1D2A3, size: 0x8, addend: 0x0, symName: __ZNSt3__117__compressed_pairIP10MemoryItemNS_9allocatorIS1_EEEC2B7v160006IDnNS_18__default_init_tagEEEOT_OT0_, symObjAddr: 0xB16C, symBinAddr: 0x10000F3FC, symSize: 0x40 }
  - { offsetInCU: 0x1D2FB, offset: 0x1D2FB, size: 0x8, addend: 0x0, symName: __ZNSt3__122__compressed_pair_elemIP10MemoryItemLi0ELb0EEC2B7v160006IDnvEEOT_, symObjAddr: 0xB1AC, symBinAddr: 0x10000F43C, symSize: 0x1C }
  - { offsetInCU: 0x1D33D, offset: 0x1D33D, size: 0x8, addend: 0x0, symName: __ZNSt3__122__compressed_pair_elemINS_9allocatorI10MemoryItemEELi1ELb1EEC2B7v160006ENS_18__default_init_tagE, symObjAddr: 0xB1C8, symBinAddr: 0x10000F458, symSize: 0x2C }
  - { offsetInCU: 0x1D371, offset: 0x1D371, size: 0x8, addend: 0x0, symName: __ZNSt3__19allocatorI10MemoryItemEC2B7v160006Ev, symObjAddr: 0xB1F4, symBinAddr: 0x10000F484, symSize: 0x2C }
  - { offsetInCU: 0x1D39B, offset: 0x1D39B, size: 0x8, addend: 0x0, symName: __ZNSt3__116__non_trivial_ifILb1ENS_9allocatorI10MemoryItemEEEC2B7v160006Ev, symObjAddr: 0xB220, symBinAddr: 0x10000F4B0, symSize: 0x14 }
  - { offsetInCU: 0x1D3C5, offset: 0x1D3C5, size: 0x8, addend: 0x0, symName: __ZNSt3__15dequeIyNS_9allocatorIyEEED2B7v160006Ev, symObjAddr: 0xB234, symBinAddr: 0x10000F4C4, symSize: 0x9C }
  - { offsetInCU: 0x1D41C, offset: 0x1D41C, size: 0x8, addend: 0x0, symName: __ZNSt3__15dequeIyNS_9allocatorIyEEE5clearEv, symObjAddr: 0xB2D0, symBinAddr: 0x10000F560, symSize: 0x180 }
  - { offsetInCU: 0x1D477, offset: 0x1D477, size: 0x8, addend: 0x0, symName: __ZNSt3__114__split_bufferIPyNS_9allocatorIS1_EEE5beginB7v160006Ev, symObjAddr: 0xB450, symBinAddr: 0x10000F6E0, symSize: 0x18 }
  - { offsetInCU: 0x1D49D, offset: 0x1D49D, size: 0x8, addend: 0x0, symName: __ZNSt3__114__split_bufferIPyNS_9allocatorIS1_EEE3endB7v160006Ev, symObjAddr: 0xB468, symBinAddr: 0x10000F6F8, symSize: 0x18 }
  - { offsetInCU: 0x1D4C3, offset: 0x1D4C3, size: 0x8, addend: 0x0, symName: __ZNSt3__116allocator_traitsINS_9allocatorIyEEE10deallocateB7v160006ERS2_Pym, symObjAddr: 0xB480, symBinAddr: 0x10000F710, symSize: 0x34 }
  - { offsetInCU: 0x1D505, offset: 0x1D505, size: 0x8, addend: 0x0, symName: __ZNSt3__15dequeIyNS_9allocatorIyEEE7__allocB7v160006Ev, symObjAddr: 0xB4B4, symBinAddr: 0x10000F744, symSize: 0x28 }
  - { offsetInCU: 0x1D52B, offset: 0x1D52B, size: 0x8, addend: 0x0, symName: __ZNSt3__114__split_bufferIPyNS_9allocatorIS1_EEED1Ev, symObjAddr: 0xB4DC, symBinAddr: 0x10000F76C, symSize: 0x2C }
  - { offsetInCU: 0x1D557, offset: 0x1D557, size: 0x8, addend: 0x0, symName: __ZNSt3__15dequeIyNS_9allocatorIyEEE5beginB7v160006Ev, symObjAddr: 0xB508, symBinAddr: 0x10000F798, symSize: 0xB8 }
  - { offsetInCU: 0x1D58C, offset: 0x1D58C, size: 0x8, addend: 0x0, symName: __ZNSt3__15dequeIyNS_9allocatorIyEEE3endB7v160006Ev, symObjAddr: 0xB5C0, symBinAddr: 0x10000F850, symSize: 0xBC }
  - { offsetInCU: 0x1D5D0, offset: 0x1D5D0, size: 0x8, addend: 0x0, symName: __ZNSt3__116allocator_traitsINS_9allocatorIyEEE7destroyB7v160006IyvEEvRS2_PT_, symObjAddr: 0xB6B0, symBinAddr: 0x10000F940, symSize: 0x2C }
  - { offsetInCU: 0x1D60D, offset: 0x1D60D, size: 0x8, addend: 0x0, symName: __ZNKSt3__116__deque_iteratorIyPyRyPS1_lLl512EEdeB7v160006Ev, symObjAddr: 0xB6DC, symBinAddr: 0x10000F96C, symSize: 0x18 }
  - { offsetInCU: 0x1D633, offset: 0x1D633, size: 0x8, addend: 0x0, symName: __ZNSt3__116__deque_iteratorIyPyRyPS1_lLl512EEppB7v160006Ev, symObjAddr: 0xB6F4, symBinAddr: 0x10000F984, symSize: 0x70 }
  - { offsetInCU: 0x1D659, offset: 0x1D659, size: 0x8, addend: 0x0, symName: __ZNSt3__15dequeIyNS_9allocatorIyEEE6__sizeB7v160006Ev, symObjAddr: 0xB764, symBinAddr: 0x10000F9F4, symSize: 0x28 }
  - { offsetInCU: 0x1D67F, offset: 0x1D67F, size: 0x8, addend: 0x0, symName: __ZNKSt3__114__split_bufferIPyNS_9allocatorIS1_EEE4sizeB7v160006Ev, symObjAddr: 0xB78C, symBinAddr: 0x10000FA1C, symSize: 0x28 }
  - { offsetInCU: 0x1D6A5, offset: 0x1D6A5, size: 0x8, addend: 0x0, symName: __ZNSt3__114__split_bufferIPyNS_9allocatorIS1_EEE5frontB7v160006Ev, symObjAddr: 0xB7B4, symBinAddr: 0x10000FA44, symSize: 0x18 }
  - { offsetInCU: 0x1D6CB, offset: 0x1D6CB, size: 0x8, addend: 0x0, symName: __ZNSt3__114__split_bufferIPyNS_9allocatorIS1_EEE9pop_frontB7v160006Ev, symObjAddr: 0xB7CC, symBinAddr: 0x10000FA5C, symSize: 0x2C }
  - { offsetInCU: 0x1D6F1, offset: 0x1D6F1, size: 0x8, addend: 0x0, symName: __ZNKSt3__114__split_bufferIPyNS_9allocatorIS1_EEE5emptyB7v160006Ev, symObjAddr: 0xB7F8, symBinAddr: 0x10000FA88, symSize: 0x28 }
  - { offsetInCU: 0x1D717, offset: 0x1D717, size: 0x8, addend: 0x0, symName: __ZNSt3__116__deque_iteratorIyPyRyPS1_lLl512EEC1B7v160006ES3_S1_, symObjAddr: 0xB820, symBinAddr: 0x10000FAB0, symSize: 0x3C }
  - { offsetInCU: 0x1D75F, offset: 0x1D75F, size: 0x8, addend: 0x0, symName: __ZNSt3__116__deque_iteratorIyPyRyPS1_lLl512EEC2B7v160006ES3_S1_, symObjAddr: 0xB85C, symBinAddr: 0x10000FAEC, symSize: 0x2C }
  - { offsetInCU: 0x1D7A7, offset: 0x1D7A7, size: 0x8, addend: 0x0, symName: __ZNKSt3__15dequeIyNS_9allocatorIyEEE4sizeB7v160006Ev, symObjAddr: 0xB888, symBinAddr: 0x10000FB18, symSize: 0x28 }
  - { offsetInCU: 0x1D7CD, offset: 0x1D7CD, size: 0x8, addend: 0x0, symName: __ZNKSt3__15dequeIyNS_9allocatorIyEEE6__sizeB7v160006Ev, symObjAddr: 0xB8B0, symBinAddr: 0x10000FB40, symSize: 0x28 }
  - { offsetInCU: 0x1D7F3, offset: 0x1D7F3, size: 0x8, addend: 0x0, symName: __ZNKSt3__117__compressed_pairImNS_9allocatorIyEEE5firstB7v160006Ev, symObjAddr: 0xB8D8, symBinAddr: 0x10000FB68, symSize: 0x24 }
  - { offsetInCU: 0x1D819, offset: 0x1D819, size: 0x8, addend: 0x0, symName: __ZNKSt3__122__compressed_pair_elemImLi0ELb0EE5__getB7v160006Ev, symObjAddr: 0xB8FC, symBinAddr: 0x10000FB8C, symSize: 0x14 }
  - { offsetInCU: 0x1D83F, offset: 0x1D83F, size: 0x8, addend: 0x0, symName: __ZNSt3__19allocatorIyE7destroyB7v160006EPy, symObjAddr: 0xB940, symBinAddr: 0x10000FBD0, symSize: 0x14 }
  - { offsetInCU: 0x1D873, offset: 0x1D873, size: 0x8, addend: 0x0, symName: __ZNSt3__117__compressed_pairImNS_9allocatorIyEEE5firstB7v160006Ev, symObjAddr: 0xB954, symBinAddr: 0x10000FBE4, symSize: 0x24 }
  - { offsetInCU: 0x1D899, offset: 0x1D899, size: 0x8, addend: 0x0, symName: __ZNSt3__114__split_bufferIPyNS_9allocatorIS1_EEE19__destruct_at_beginB7v160006EPS1_, symObjAddr: 0xB978, symBinAddr: 0x10000FC08, symSize: 0x2C }
  - { offsetInCU: 0x1D8CD, offset: 0x1D8CD, size: 0x8, addend: 0x0, symName: __ZNSt3__114__split_bufferIPyNS_9allocatorIS1_EEE19__destruct_at_beginEPS1_NS_17integral_constantIbLb1EEE, symObjAddr: 0xB9A4, symBinAddr: 0x10000FC34, symSize: 0x20 }
  - { offsetInCU: 0x1D90D, offset: 0x1D90D, size: 0x8, addend: 0x0, symName: __ZNSt3__19allocatorIyE10deallocateB7v160006EPym, symObjAddr: 0xB9C4, symBinAddr: 0x10000FC54, symSize: 0x40 }
  - { offsetInCU: 0x1D94F, offset: 0x1D94F, size: 0x8, addend: 0x0, symName: __ZNSt3__117__compressed_pairImNS_9allocatorIyEEE6secondB7v160006Ev, symObjAddr: 0xBA04, symBinAddr: 0x10000FC94, symSize: 0x24 }
  - { offsetInCU: 0x1D975, offset: 0x1D975, size: 0x8, addend: 0x0, symName: __ZNSt3__122__compressed_pair_elemINS_9allocatorIyEELi1ELb1EE5__getB7v160006Ev, symObjAddr: 0xBA28, symBinAddr: 0x10000FCB8, symSize: 0x14 }
  - { offsetInCU: 0x1D99B, offset: 0x1D99B, size: 0x8, addend: 0x0, symName: __ZNSt3__114__split_bufferIPyNS_9allocatorIS1_EEED2Ev, symObjAddr: 0xBA3C, symBinAddr: 0x10000FCCC, symSize: 0x8C }
  - { offsetInCU: 0x1D9C7, offset: 0x1D9C7, size: 0x8, addend: 0x0, symName: __ZNSt3__114__split_bufferIPyNS_9allocatorIS1_EEE5clearB7v160006Ev, symObjAddr: 0xBAC8, symBinAddr: 0x10000FD58, symSize: 0x28 }
  - { offsetInCU: 0x1D9ED, offset: 0x1D9ED, size: 0x8, addend: 0x0, symName: __ZNSt3__116allocator_traitsINS_9allocatorIPyEEE10deallocateB7v160006ERS3_PS2_m, symObjAddr: 0xBAF0, symBinAddr: 0x10000FD80, symSize: 0x34 }
  - { offsetInCU: 0x1DA2F, offset: 0x1DA2F, size: 0x8, addend: 0x0, symName: __ZNSt3__114__split_bufferIPyNS_9allocatorIS1_EEE7__allocB7v160006Ev, symObjAddr: 0xBB24, symBinAddr: 0x10000FDB4, symSize: 0x28 }
  - { offsetInCU: 0x1DA55, offset: 0x1DA55, size: 0x8, addend: 0x0, symName: __ZNKSt3__114__split_bufferIPyNS_9allocatorIS1_EEE8capacityB7v160006Ev, symObjAddr: 0xBB4C, symBinAddr: 0x10000FDDC, symSize: 0x40 }
  - { offsetInCU: 0x1DA7B, offset: 0x1DA7B, size: 0x8, addend: 0x0, symName: __ZNSt3__114__split_bufferIPyNS_9allocatorIS1_EEE17__destruct_at_endB7v160006EPS1_, symObjAddr: 0xBB8C, symBinAddr: 0x10000FE1C, symSize: 0x2C }
  - { offsetInCU: 0x1DAAF, offset: 0x1DAAF, size: 0x8, addend: 0x0, symName: __ZNSt3__114__split_bufferIPyNS_9allocatorIS1_EEE17__destruct_at_endB7v160006EPS1_NS_17integral_constantIbLb0EEE, symObjAddr: 0xBBB8, symBinAddr: 0x10000FE48, symSize: 0x80 }
  - { offsetInCU: 0x1DAEF, offset: 0x1DAEF, size: 0x8, addend: 0x0, symName: __ZNSt3__116allocator_traitsINS_9allocatorIPyEEE7destroyB7v160006IS2_vEEvRS3_PT_, symObjAddr: 0xBC38, symBinAddr: 0x10000FEC8, symSize: 0x2C }
  - { offsetInCU: 0x1DB2C, offset: 0x1DB2C, size: 0x8, addend: 0x0, symName: __ZNSt3__19allocatorIPyE7destroyB7v160006EPS1_, symObjAddr: 0xBC78, symBinAddr: 0x10000FF08, symSize: 0x14 }
  - { offsetInCU: 0x1DB60, offset: 0x1DB60, size: 0x8, addend: 0x0, symName: __ZNSt3__19allocatorIPyE10deallocateB7v160006EPS1_m, symObjAddr: 0xBC8C, symBinAddr: 0x10000FF1C, symSize: 0x40 }
  - { offsetInCU: 0x1DBA2, offset: 0x1DBA2, size: 0x8, addend: 0x0, symName: __ZNSt3__117__compressed_pairIPPyNS_9allocatorIS1_EEE6secondB7v160006Ev, symObjAddr: 0xBCCC, symBinAddr: 0x10000FF5C, symSize: 0x24 }
  - { offsetInCU: 0x1DBC8, offset: 0x1DBC8, size: 0x8, addend: 0x0, symName: __ZNSt3__122__compressed_pair_elemINS_9allocatorIPyEELi1ELb1EE5__getB7v160006Ev, symObjAddr: 0xBCF0, symBinAddr: 0x10000FF80, symSize: 0x14 }
  - { offsetInCU: 0x1DBEE, offset: 0x1DBEE, size: 0x8, addend: 0x0, symName: __ZNKSt3__114__split_bufferIPyNS_9allocatorIS1_EEE9__end_capB7v160006Ev, symObjAddr: 0xBD04, symBinAddr: 0x10000FF94, symSize: 0x28 }
  - { offsetInCU: 0x1DC14, offset: 0x1DC14, size: 0x8, addend: 0x0, symName: __ZNKSt3__117__compressed_pairIPPyNS_9allocatorIS1_EEE5firstB7v160006Ev, symObjAddr: 0xBD2C, symBinAddr: 0x10000FFBC, symSize: 0x24 }
  - { offsetInCU: 0x1DC3A, offset: 0x1DC3A, size: 0x8, addend: 0x0, symName: __ZNKSt3__122__compressed_pair_elemIPPyLi0ELb0EE5__getB7v160006Ev, symObjAddr: 0xBD50, symBinAddr: 0x10000FFE0, symSize: 0x14 }
  - { offsetInCU: 0x1DC60, offset: 0x1DC60, size: 0x8, addend: 0x0, symName: __ZNSt3__16vectorI10MemoryItemNS_9allocatorIS1_EEED2B7v160006Ev, symObjAddr: 0xBD64, symBinAddr: 0x10000FFF4, symSize: 0x44 }
  - { offsetInCU: 0x1DC8A, offset: 0x1DC8A, size: 0x8, addend: 0x0, symName: __ZNSt3__16vectorI10MemoryItemNS_9allocatorIS1_EEE16__destroy_vectorC1ERS4_, symObjAddr: 0xBDA8, symBinAddr: 0x100010038, symSize: 0x34 }
  - { offsetInCU: 0x1DCC3, offset: 0x1DCC3, size: 0x8, addend: 0x0, symName: __ZNSt3__16vectorI10MemoryItemNS_9allocatorIS1_EEE16__destroy_vectorclB7v160006Ev, symObjAddr: 0xBDDC, symBinAddr: 0x10001006C, symSize: 0x9C }
  - { offsetInCU: 0x1DCE9, offset: 0x1DCE9, size: 0x8, addend: 0x0, symName: __ZNSt3__16vectorI10MemoryItemNS_9allocatorIS1_EEE16__destroy_vectorC2ERS4_, symObjAddr: 0xBE78, symBinAddr: 0x100010108, symSize: 0x20 }
  - { offsetInCU: 0x1DD22, offset: 0x1DD22, size: 0x8, addend: 0x0, symName: __ZNKSt3__16vectorI10MemoryItemNS_9allocatorIS1_EEE17__annotate_deleteB7v160006Ev, symObjAddr: 0xBE98, symBinAddr: 0x100010128, symSize: 0xD4 }
  - { offsetInCU: 0x1DD48, offset: 0x1DD48, size: 0x8, addend: 0x0, symName: __ZNSt3__16vectorI10MemoryItemNS_9allocatorIS1_EEE7__clearB7v160006Ev, symObjAddr: 0xBF7C, symBinAddr: 0x10001020C, symSize: 0x28 }
  - { offsetInCU: 0x1DD6E, offset: 0x1DD6E, size: 0x8, addend: 0x0, symName: __ZNSt3__116allocator_traitsINS_9allocatorI10MemoryItemEEE10deallocateB7v160006ERS3_PS2_m, symObjAddr: 0xBFA4, symBinAddr: 0x100010234, symSize: 0x34 }
  - { offsetInCU: 0x1DDB0, offset: 0x1DDB0, size: 0x8, addend: 0x0, symName: __ZNSt3__16vectorI10MemoryItemNS_9allocatorIS1_EEE7__allocB7v160006Ev, symObjAddr: 0xBFD8, symBinAddr: 0x100010268, symSize: 0x28 }
  - { offsetInCU: 0x1DDD6, offset: 0x1DDD6, size: 0x8, addend: 0x0, symName: __ZNKSt3__16vectorI10MemoryItemNS_9allocatorIS1_EEE8capacityB7v160006Ev, symObjAddr: 0xC000, symBinAddr: 0x100010290, symSize: 0x40 }
  - { offsetInCU: 0x1DDFC, offset: 0x1DDFC, size: 0x8, addend: 0x0, symName: __ZNKSt3__16vectorI10MemoryItemNS_9allocatorIS1_EEE31__annotate_contiguous_containerB7v160006EPKvS6_S6_S6_, symObjAddr: 0xC040, symBinAddr: 0x1000102D0, symSize: 0x20 }
  - { offsetInCU: 0x1DE4E, offset: 0x1DE4E, size: 0x8, addend: 0x0, symName: __ZNKSt3__16vectorI10MemoryItemNS_9allocatorIS1_EEE4dataB7v160006Ev, symObjAddr: 0xC060, symBinAddr: 0x1000102F0, symSize: 0x28 }
  - { offsetInCU: 0x1DE74, offset: 0x1DE74, size: 0x8, addend: 0x0, symName: __ZNKSt3__16vectorI10MemoryItemNS_9allocatorIS1_EEE4sizeB7v160006Ev, symObjAddr: 0xC088, symBinAddr: 0x100010318, symSize: 0x28 }
  - { offsetInCU: 0x1DE9A, offset: 0x1DE9A, size: 0x8, addend: 0x0, symName: __ZNSt3__16vectorI10MemoryItemNS_9allocatorIS1_EEE22__base_destruct_at_endB7v160006EPS1_, symObjAddr: 0xC0B0, symBinAddr: 0x100010340, symSize: 0x8C }
  - { offsetInCU: 0x1DEDE, offset: 0x1DEDE, size: 0x8, addend: 0x0, symName: __ZNSt3__116allocator_traitsINS_9allocatorI10MemoryItemEEE7destroyB7v160006IS2_vEEvRS3_PT_, symObjAddr: 0xC13C, symBinAddr: 0x1000103CC, symSize: 0x2C }
  - { offsetInCU: 0x1DF1B, offset: 0x1DF1B, size: 0x8, addend: 0x0, symName: __ZNSt3__19allocatorI10MemoryItemE7destroyB7v160006EPS1_, symObjAddr: 0xC168, symBinAddr: 0x1000103F8, symSize: 0x14 }
  - { offsetInCU: 0x1DF4F, offset: 0x1DF4F, size: 0x8, addend: 0x0, symName: __ZNSt3__19allocatorI10MemoryItemE10deallocateB7v160006EPS1_m, symObjAddr: 0xC17C, symBinAddr: 0x10001040C, symSize: 0x44 }
  - { offsetInCU: 0x1DF91, offset: 0x1DF91, size: 0x8, addend: 0x0, symName: __ZNSt3__117__compressed_pairIP10MemoryItemNS_9allocatorIS1_EEE6secondB7v160006Ev, symObjAddr: 0xC1C0, symBinAddr: 0x100010450, symSize: 0x24 }
  - { offsetInCU: 0x1DFB7, offset: 0x1DFB7, size: 0x8, addend: 0x0, symName: __ZNSt3__122__compressed_pair_elemINS_9allocatorI10MemoryItemEELi1ELb1EE5__getB7v160006Ev, symObjAddr: 0xC1E4, symBinAddr: 0x100010474, symSize: 0x14 }
  - { offsetInCU: 0x1DFDD, offset: 0x1DFDD, size: 0x8, addend: 0x0, symName: __ZNKSt3__16vectorI10MemoryItemNS_9allocatorIS1_EEE9__end_capB7v160006Ev, symObjAddr: 0xC1F8, symBinAddr: 0x100010488, symSize: 0x28 }
  - { offsetInCU: 0x1E003, offset: 0x1E003, size: 0x8, addend: 0x0, symName: __ZNKSt3__117__compressed_pairIP10MemoryItemNS_9allocatorIS1_EEE5firstB7v160006Ev, symObjAddr: 0xC220, symBinAddr: 0x1000104B0, symSize: 0x24 }
  - { offsetInCU: 0x1E029, offset: 0x1E029, size: 0x8, addend: 0x0, symName: __ZNKSt3__122__compressed_pair_elemIP10MemoryItemLi0ELb0EE5__getB7v160006Ev, symObjAddr: 0xC244, symBinAddr: 0x1000104D4, symSize: 0x14 }
  - { offsetInCU: 0x1E04F, offset: 0x1E04F, size: 0x8, addend: 0x0, symName: __ZNKSt3__15dequeIyNS_9allocatorIyEEE12__back_spareB7v160006Ev, symObjAddr: 0xC258, symBinAddr: 0x1000104E8, symSize: 0x54 }
  - { offsetInCU: 0x1E075, offset: 0x1E075, size: 0x8, addend: 0x0, symName: __ZNSt3__15dequeIyNS_9allocatorIyEEE19__add_back_capacityEv, symObjAddr: 0xC2AC, symBinAddr: 0x10001053C, symSize: 0x314 }
  - { offsetInCU: 0x1E132, offset: 0x1E132, size: 0x8, addend: 0x0, symName: __ZNSt3__116allocator_traitsINS_9allocatorIyEEE9constructB7v160006IyJyEvEEvRS2_PT_DpOT0_, symObjAddr: 0xC5C0, symBinAddr: 0x100010850, symSize: 0x34 }
  - { offsetInCU: 0x1E189, offset: 0x1E189, size: 0x8, addend: 0x0, symName: __ZNKSt3__15dequeIyNS_9allocatorIyEEE10__capacityB7v160006Ev, symObjAddr: 0xC5F4, symBinAddr: 0x100010884, symSize: 0x60 }
  - { offsetInCU: 0x1E1AF, offset: 0x1E1AF, size: 0x8, addend: 0x0, symName: __ZNKSt3__15dequeIyNS_9allocatorIyEEE13__front_spareB7v160006Ev, symObjAddr: 0xC654, symBinAddr: 0x1000108E4, symSize: 0x18 }
  - { offsetInCU: 0x1E1D5, offset: 0x1E1D5, size: 0x8, addend: 0x0, symName: __ZNSt3__114__split_bufferIPyNS_9allocatorIS1_EEE9push_backB7v160006ERKS1_, symObjAddr: 0xC66C, symBinAddr: 0x1000108FC, symSize: 0x260 }
  - { offsetInCU: 0x1E24E, offset: 0x1E24E, size: 0x8, addend: 0x0, symName: __ZNKSt3__114__split_bufferIPyNS_9allocatorIS1_EEE12__back_spareB7v160006Ev, symObjAddr: 0xC8CC, symBinAddr: 0x100010B5C, symSize: 0x40 }
  - { offsetInCU: 0x1E274, offset: 0x1E274, size: 0x8, addend: 0x0, symName: __ZNSt3__114__split_bufferIPyNS_9allocatorIS1_EEE9push_backEOS1_, symObjAddr: 0xC90C, symBinAddr: 0x100010B9C, symSize: 0x260 }
  - { offsetInCU: 0x1E2ED, offset: 0x1E2ED, size: 0x8, addend: 0x0, symName: __ZNSt3__116allocator_traitsINS_9allocatorIyEEE8allocateB7v160006ERS2_m, symObjAddr: 0xCB6C, symBinAddr: 0x100010DFC, symSize: 0x2C }
  - { offsetInCU: 0x1E320, offset: 0x1E320, size: 0x8, addend: 0x0, symName: __ZNSt3__114__split_bufferIPyNS_9allocatorIS1_EEE10push_frontEOS1_, symObjAddr: 0xCB98, symBinAddr: 0x100010E28, symSize: 0x25C }
  - { offsetInCU: 0x1E399, offset: 0x1E399, size: 0x8, addend: 0x0, symName: __ZNSt3__114__split_bufferIPyRNS_9allocatorIS1_EEEC1EmmS4_, symObjAddr: 0xCDF4, symBinAddr: 0x100011084, symSize: 0x44 }
  - { offsetInCU: 0x1E3F4, offset: 0x1E3F4, size: 0x8, addend: 0x0, symName: __ZNSt3__122__allocator_destructorINS_9allocatorIyEEEC1B7v160006ERS2_m, symObjAddr: 0xCE38, symBinAddr: 0x1000110C8, symSize: 0x3C }
  - { offsetInCU: 0x1E4B7, offset: 0x1E4B7, size: 0x8, addend: 0x0, symName: __ZNSt3__110unique_ptrIPyNS_22__allocator_destructorINS_9allocatorIyEEEEEC1B7v160006ILb1EvEES1_NS_16__dependent_typeINS_27__unique_ptr_deleter_sfinaeIS5_EEXT_EE20__good_rval_ref_typeE, symObjAddr: 0xCE74, symBinAddr: 0x100011104, symSize: 0x3C }
  - { offsetInCU: 0x1E508, offset: 0x1E508, size: 0x8, addend: 0x0, symName: __ZNSt3__114__split_bufferIPyRNS_9allocatorIS1_EEE9push_backEOS1_, symObjAddr: 0xCEB0, symBinAddr: 0x100011140, symSize: 0x260 }
  - { offsetInCU: 0x1E581, offset: 0x1E581, size: 0x8, addend: 0x0, symName: __ZNKSt3__110unique_ptrIPyNS_22__allocator_destructorINS_9allocatorIyEEEEE3getB7v160006Ev, symObjAddr: 0xD110, symBinAddr: 0x1000113A0, symSize: 0x28 }
  - { offsetInCU: 0x1E5A7, offset: 0x1E5A7, size: 0x8, addend: 0x0, symName: __ZNSt3__110unique_ptrIPyNS_22__allocator_destructorINS_9allocatorIyEEEEE7releaseB7v160006Ev, symObjAddr: 0xD138, symBinAddr: 0x1000113C8, symSize: 0x44 }
  - { offsetInCU: 0x1E5DC, offset: 0x1E5DC, size: 0x8, addend: 0x0, symName: __ZNSt3__114__split_bufferIPyRNS_9allocatorIS1_EEE10push_frontERKS1_, symObjAddr: 0xD17C, symBinAddr: 0x10001140C, symSize: 0x25C }
  - { offsetInCU: 0x1E655, offset: 0x1E655, size: 0x8, addend: 0x0, symName: __ZNSt3__114__split_bufferIPyNS_9allocatorIS1_EEE9__end_capB7v160006Ev, symObjAddr: 0xD414, symBinAddr: 0x1000116A4, symSize: 0x28 }
  - { offsetInCU: 0x1E67B, offset: 0x1E67B, size: 0x8, addend: 0x0, symName: __ZNSt3__114__split_bufferIPyRNS_9allocatorIS1_EEE9__end_capB7v160006Ev, symObjAddr: 0xD43C, symBinAddr: 0x1000116CC, symSize: 0x28 }
  - { offsetInCU: 0x1E6A1, offset: 0x1E6A1, size: 0x8, addend: 0x0, symName: __ZNSt3__110unique_ptrIPyNS_22__allocator_destructorINS_9allocatorIyEEEEED1B7v160006Ev, symObjAddr: 0xD464, symBinAddr: 0x1000116F4, symSize: 0x2C }
  - { offsetInCU: 0x1E6CB, offset: 0x1E6CB, size: 0x8, addend: 0x0, symName: __ZNSt3__114__split_bufferIPyRNS_9allocatorIS1_EEED1Ev, symObjAddr: 0xD490, symBinAddr: 0x100011720, symSize: 0x2C }
  - { offsetInCU: 0x1E6F7, offset: 0x1E6F7, size: 0x8, addend: 0x0, symName: __ZNSt3__114__split_bufferIPyRNS_9allocatorIS1_EEE18__construct_at_endINS_13move_iteratorIPS1_EEEENS_9enable_ifIXsr27__is_cpp17_forward_iteratorIT_EE5valueEvE4typeESB_SB_, symObjAddr: 0xD4FC, symBinAddr: 0x10001178C, symSize: 0xFC }
  - { offsetInCU: 0x1E753, offset: 0x1E753, size: 0x8, addend: 0x0, symName: __ZNSt3__113move_iteratorIPPyEC1B7v160006ES2_, symObjAddr: 0xD5F8, symBinAddr: 0x100011888, symSize: 0x34 }
  - { offsetInCU: 0x1E78B, offset: 0x1E78B, size: 0x8, addend: 0x0, symName: __ZNSt3__116allocator_traitsINS_9allocatorIPyEEE9constructB7v160006IS2_JRKS2_EvEEvRS3_PT_DpOT0_, symObjAddr: 0xD62C, symBinAddr: 0x1000118BC, symSize: 0x34 }
  - { offsetInCU: 0x1E7FB, offset: 0x1E7FB, size: 0x8, addend: 0x0, symName: __ZNKSt3__114__move_trivialclB7v160006IPyS2_Li0EEENS_4pairIPT_PT0_EES5_S5_S7_, symObjAddr: 0xD7FC, symBinAddr: 0x100011A8C, symSize: 0x48 }
  - { offsetInCU: 0x1E868, offset: 0x1E868, size: 0x8, addend: 0x0, symName: __ZNSt3__14pairIPPyS2_EC1B7v160006IRS2_S2_LPv0EEEOT_OT0_, symObjAddr: 0xD9C4, symBinAddr: 0x100011C54, symSize: 0x3C }
  - { offsetInCU: 0x1E8C6, offset: 0x1E8C6, size: 0x8, addend: 0x0, symName: __ZNSt3__14pairIPPyS2_EC2B7v160006IRS2_S2_LPv0EEEOT_OT0_, symObjAddr: 0xDA00, symBinAddr: 0x100011C90, symSize: 0x34 }
  - { offsetInCU: 0x1E924, offset: 0x1E924, size: 0x8, addend: 0x0, symName: __ZNSt3__118__unwrap_iter_implIPPyLb1EE8__unwrapB7v160006ES2_, symObjAddr: 0xDA34, symBinAddr: 0x100011CC4, symSize: 0x24 }
  - { offsetInCU: 0x1E947, offset: 0x1E947, size: 0x8, addend: 0x0, symName: __ZNSt3__14pairIPPyS2_EC1B7v160006IS2_S2_LPv0EEEOT_OT0_, symObjAddr: 0xDA58, symBinAddr: 0x100011CE8, symSize: 0x3C }
  - { offsetInCU: 0x1E9A5, offset: 0x1E9A5, size: 0x8, addend: 0x0, symName: __ZNSt3__14pairIPPyS2_EC2B7v160006IS2_S2_LPv0EEEOT_OT0_, symObjAddr: 0xDA94, symBinAddr: 0x100011D24, symSize: 0x34 }
  - { offsetInCU: 0x1EA03, offset: 0x1EA03, size: 0x8, addend: 0x0, symName: __ZNSt3__118__unwrap_iter_implIPPyLb1EE8__rewrapB7v160006ES2_S2_, symObjAddr: 0xDAC8, symBinAddr: 0x100011D58, symSize: 0x50 }
  - { offsetInCU: 0x1EA3E, offset: 0x1EA3E, size: 0x8, addend: 0x0, symName: __ZNSt3__114__split_bufferIPyRNS_9allocatorIS1_EEE21_ConstructTransactionC1B7v160006EPPS1_m, symObjAddr: 0xDB54, symBinAddr: 0x100011DE4, symSize: 0x3C }
  - { offsetInCU: 0x1EA84, offset: 0x1EA84, size: 0x8, addend: 0x0, symName: __ZNSt3__116allocator_traitsINS_9allocatorIPyEEE9constructB7v160006IS2_JS2_EvEEvRS3_PT_DpOT0_, symObjAddr: 0xDB90, symBinAddr: 0x100011E20, symSize: 0x34 }
  - { offsetInCU: 0x1EADB, offset: 0x1EADB, size: 0x8, addend: 0x0, symName: __ZNSt3__114__split_bufferIPyRNS_9allocatorIS1_EEE7__allocB7v160006Ev, symObjAddr: 0xDBC4, symBinAddr: 0x100011E54, symSize: 0x28 }
  - { offsetInCU: 0x1EB01, offset: 0x1EB01, size: 0x8, addend: 0x0, symName: __ZNKSt3__113move_iteratorIPPyEdeB7v160006Ev, symObjAddr: 0xDBEC, symBinAddr: 0x100011E7C, symSize: 0x18 }
  - { offsetInCU: 0x1EB27, offset: 0x1EB27, size: 0x8, addend: 0x0, symName: __ZNSt3__113move_iteratorIPPyEppB7v160006Ev, symObjAddr: 0xDC04, symBinAddr: 0x100011E94, symSize: 0x20 }
  - { offsetInCU: 0x1EB4D, offset: 0x1EB4D, size: 0x8, addend: 0x0, symName: __ZNSt3__114__split_bufferIPyRNS_9allocatorIS1_EEE21_ConstructTransactionD1B7v160006Ev, symObjAddr: 0xDC24, symBinAddr: 0x100011EB4, symSize: 0x2C }
  - { offsetInCU: 0x1EB77, offset: 0x1EB77, size: 0x8, addend: 0x0, symName: __ZNKSt3__113move_iteratorIPPyE4baseB7v160006Ev, symObjAddr: 0xDCC8, symBinAddr: 0x100011F58, symSize: 0x18 }
  - { offsetInCU: 0x1EB9D, offset: 0x1EB9D, size: 0x8, addend: 0x0, symName: __ZNSt3__114__split_bufferIPyRNS_9allocatorIS1_EEE21_ConstructTransactionC2B7v160006EPPS1_m, symObjAddr: 0xDCE0, symBinAddr: 0x100011F70, symSize: 0x44 }
  - { offsetInCU: 0x1EBE3, offset: 0x1EBE3, size: 0x8, addend: 0x0, symName: __ZNSt3__19allocatorIPyE9constructB7v160006IS1_JS1_EEEvPT_DpOT0_, symObjAddr: 0xDD24, symBinAddr: 0x100011FB4, symSize: 0x28 }
  - { offsetInCU: 0x1EC39, offset: 0x1EC39, size: 0x8, addend: 0x0, symName: __ZNSt3__117__compressed_pairIPPyRNS_9allocatorIS1_EEE6secondB7v160006Ev, symObjAddr: 0xDD4C, symBinAddr: 0x100011FDC, symSize: 0x28 }
  - { offsetInCU: 0x1EC5F, offset: 0x1EC5F, size: 0x8, addend: 0x0, symName: __ZNSt3__122__compressed_pair_elemIRNS_9allocatorIPyEELi1ELb0EE5__getB7v160006Ev, symObjAddr: 0xDD74, symBinAddr: 0x100012004, symSize: 0x18 }
  - { offsetInCU: 0x1EC85, offset: 0x1EC85, size: 0x8, addend: 0x0, symName: __ZNSt3__114__split_bufferIPyRNS_9allocatorIS1_EEE21_ConstructTransactionD2B7v160006Ev, symObjAddr: 0xDD8C, symBinAddr: 0x10001201C, symSize: 0x20 }
  - { offsetInCU: 0x1ECAF, offset: 0x1ECAF, size: 0x8, addend: 0x0, symName: __ZNSt3__113move_iteratorIPPyEC2B7v160006ES2_, symObjAddr: 0xDDAC, symBinAddr: 0x10001203C, symSize: 0x20 }
  - { offsetInCU: 0x1ECE7, offset: 0x1ECE7, size: 0x8, addend: 0x0, symName: __ZNSt3__19allocatorIPyE9constructB7v160006IS1_JRKS1_EEEvPT_DpOT0_, symObjAddr: 0xDDCC, symBinAddr: 0x10001205C, symSize: 0x28 }
  - { offsetInCU: 0x1ED3D, offset: 0x1ED3D, size: 0x8, addend: 0x0, symName: __ZNSt3__19allocatorIyE8allocateB7v160006Em, symObjAddr: 0xDDF4, symBinAddr: 0x100012084, symSize: 0x58 }
  - { offsetInCU: 0x1ED7B, offset: 0x1ED7B, size: 0x8, addend: 0x0, symName: __ZNSt3__116allocator_traitsINS_9allocatorIyEEE8max_sizeB7v160006IS2_vEEmRKS2_, symObjAddr: 0xDE4C, symBinAddr: 0x1000120DC, symSize: 0x24 }
  - { offsetInCU: 0x1EDA9, offset: 0x1EDA9, size: 0x8, addend: 0x0, symName: __ZNKSt3__19allocatorIyE8max_sizeB7v160006Ev, symObjAddr: 0xDE70, symBinAddr: 0x100012100, symSize: 0x14 }
  - { offsetInCU: 0x1EDCF, offset: 0x1EDCF, size: 0x8, addend: 0x0, symName: __ZNKSt3__123__move_backward_trivialclB7v160006IPyS2_Li0EEENS_4pairIPT_PT0_EES5_S5_S7_, symObjAddr: 0xE000, symBinAddr: 0x100012290, symSize: 0x48 }
  - { offsetInCU: 0x1EE37, offset: 0x1EE37, size: 0x8, addend: 0x0, symName: __ZNSt3__14pairIPPyS2_EC1B7v160006IRS2_S5_LPv0EEEOT_OT0_, symObjAddr: 0xE114, symBinAddr: 0x1000123A4, symSize: 0x3C }
  - { offsetInCU: 0x1EE95, offset: 0x1EE95, size: 0x8, addend: 0x0, symName: __ZNSt3__14pairIPPyS2_EC2B7v160006IRS2_S5_LPv0EEEOT_OT0_, symObjAddr: 0xE150, symBinAddr: 0x1000123E0, symSize: 0x34 }
  - { offsetInCU: 0x1EEF3, offset: 0x1EEF3, size: 0x8, addend: 0x0, symName: __ZNSt3__114__split_bufferIPyRNS_9allocatorIS1_EEEC2EmmS4_, symObjAddr: 0xE184, symBinAddr: 0x100012414, symSize: 0xD4 }
  - { offsetInCU: 0x1EF67, offset: 0x1EF67, size: 0x8, addend: 0x0, symName: __ZNSt3__117__compressed_pairIPPyRNS_9allocatorIS1_EEEC1B7v160006IDnS5_EEOT_OT0_, symObjAddr: 0xE258, symBinAddr: 0x1000124E8, symSize: 0x3C }
  - { offsetInCU: 0x1EFBF, offset: 0x1EFBF, size: 0x8, addend: 0x0, symName: __ZNSt3__117__compressed_pairIPPyRNS_9allocatorIS1_EEEC2B7v160006IDnS5_EEOT_OT0_, symObjAddr: 0xE2D4, symBinAddr: 0x100012564, symSize: 0x48 }
  - { offsetInCU: 0x1F017, offset: 0x1F017, size: 0x8, addend: 0x0, symName: __ZNSt3__122__compressed_pair_elemIRNS_9allocatorIPyEELi1ELb0EEC2B7v160006IS4_vEEOT_, symObjAddr: 0xE31C, symBinAddr: 0x1000125AC, symSize: 0x20 }
  - { offsetInCU: 0x1F059, offset: 0x1F059, size: 0x8, addend: 0x0, symName: __ZNSt3__19allocatorIPyE8allocateB7v160006Em, symObjAddr: 0xE33C, symBinAddr: 0x1000125CC, symSize: 0x58 }
  - { offsetInCU: 0x1F097, offset: 0x1F097, size: 0x8, addend: 0x0, symName: __ZNSt3__116allocator_traitsINS_9allocatorIPyEEE8max_sizeB7v160006IS3_vEEmRKS3_, symObjAddr: 0xE394, symBinAddr: 0x100012624, symSize: 0x24 }
  - { offsetInCU: 0x1F0C5, offset: 0x1F0C5, size: 0x8, addend: 0x0, symName: __ZNKSt3__19allocatorIPyE8max_sizeB7v160006Ev, symObjAddr: 0xE3B8, symBinAddr: 0x100012648, symSize: 0x14 }
  - { offsetInCU: 0x1F0EB, offset: 0x1F0EB, size: 0x8, addend: 0x0, symName: __ZNSt3__122__allocator_destructorINS_9allocatorIyEEEC2B7v160006ERS2_m, symObjAddr: 0xE3CC, symBinAddr: 0x10001265C, symSize: 0x2C }
  - { offsetInCU: 0x1F131, offset: 0x1F131, size: 0x8, addend: 0x0, symName: __ZNSt3__110unique_ptrIPyNS_22__allocator_destructorINS_9allocatorIyEEEEEC2B7v160006ILb1EvEES1_NS_16__dependent_typeINS_27__unique_ptr_deleter_sfinaeIS5_EEXT_EE20__good_rval_ref_typeE, symObjAddr: 0xE3F8, symBinAddr: 0x100012688, symSize: 0x48 }
  - { offsetInCU: 0x1F182, offset: 0x1F182, size: 0x8, addend: 0x0, symName: __ZNSt3__117__compressed_pairIPyNS_22__allocator_destructorINS_9allocatorIyEEEEEC1B7v160006IRS1_S5_EEOT_OT0_, symObjAddr: 0xE440, symBinAddr: 0x1000126D0, symSize: 0x3C }
  - { offsetInCU: 0x1F1DA, offset: 0x1F1DA, size: 0x8, addend: 0x0, symName: __ZNSt3__117__compressed_pairIPyNS_22__allocator_destructorINS_9allocatorIyEEEEEC2B7v160006IRS1_S5_EEOT_OT0_, symObjAddr: 0xE47C, symBinAddr: 0x10001270C, symSize: 0x48 }
  - { offsetInCU: 0x1F232, offset: 0x1F232, size: 0x8, addend: 0x0, symName: __ZNSt3__122__compressed_pair_elemIPyLi0ELb0EEC2B7v160006IRS1_vEEOT_, symObjAddr: 0xE4C4, symBinAddr: 0x100012754, symSize: 0x24 }
  - { offsetInCU: 0x1F274, offset: 0x1F274, size: 0x8, addend: 0x0, symName: __ZNSt3__122__compressed_pair_elemINS_22__allocator_destructorINS_9allocatorIyEEEELi1ELb0EEC2B7v160006IS4_vEEOT_, symObjAddr: 0xE4E8, symBinAddr: 0x100012778, symSize: 0x24 }
  - { offsetInCU: 0x1F2B6, offset: 0x1F2B6, size: 0x8, addend: 0x0, symName: __ZNKSt3__117__compressed_pairIPyNS_22__allocator_destructorINS_9allocatorIyEEEEE5firstB7v160006Ev, symObjAddr: 0xE50C, symBinAddr: 0x10001279C, symSize: 0x24 }
  - { offsetInCU: 0x1F2DC, offset: 0x1F2DC, size: 0x8, addend: 0x0, symName: __ZNKSt3__122__compressed_pair_elemIPyLi0ELb0EE5__getB7v160006Ev, symObjAddr: 0xE530, symBinAddr: 0x1000127C0, symSize: 0x14 }
  - { offsetInCU: 0x1F302, offset: 0x1F302, size: 0x8, addend: 0x0, symName: __ZNSt3__117__compressed_pairIPyNS_22__allocator_destructorINS_9allocatorIyEEEEE5firstB7v160006Ev, symObjAddr: 0xE544, symBinAddr: 0x1000127D4, symSize: 0x24 }
  - { offsetInCU: 0x1F328, offset: 0x1F328, size: 0x8, addend: 0x0, symName: __ZNSt3__122__compressed_pair_elemIPyLi0ELb0EE5__getB7v160006Ev, symObjAddr: 0xE568, symBinAddr: 0x1000127F8, symSize: 0x14 }
  - { offsetInCU: 0x1F34E, offset: 0x1F34E, size: 0x8, addend: 0x0, symName: __ZNSt3__117__compressed_pairIPPyNS_9allocatorIS1_EEE5firstB7v160006Ev, symObjAddr: 0xE57C, symBinAddr: 0x10001280C, symSize: 0x24 }
  - { offsetInCU: 0x1F374, offset: 0x1F374, size: 0x8, addend: 0x0, symName: __ZNSt3__122__compressed_pair_elemIPPyLi0ELb0EE5__getB7v160006Ev, symObjAddr: 0xE5A0, symBinAddr: 0x100012830, symSize: 0x14 }
  - { offsetInCU: 0x1F39A, offset: 0x1F39A, size: 0x8, addend: 0x0, symName: __ZNSt3__117__compressed_pairIPPyRNS_9allocatorIS1_EEE5firstB7v160006Ev, symObjAddr: 0xE5B4, symBinAddr: 0x100012844, symSize: 0x24 }
  - { offsetInCU: 0x1F3C0, offset: 0x1F3C0, size: 0x8, addend: 0x0, symName: __ZNSt3__110unique_ptrIPyNS_22__allocator_destructorINS_9allocatorIyEEEEED2B7v160006Ev, symObjAddr: 0xE5D8, symBinAddr: 0x100012868, symSize: 0x30 }
  - { offsetInCU: 0x1F3EA, offset: 0x1F3EA, size: 0x8, addend: 0x0, symName: __ZNSt3__110unique_ptrIPyNS_22__allocator_destructorINS_9allocatorIyEEEEE5resetB7v160006ES1_, symObjAddr: 0xE608, symBinAddr: 0x100012898, symSize: 0x78 }
  - { offsetInCU: 0x1F42E, offset: 0x1F42E, size: 0x8, addend: 0x0, symName: __ZNSt3__117__compressed_pairIPyNS_22__allocator_destructorINS_9allocatorIyEEEEE6secondB7v160006Ev, symObjAddr: 0xE680, symBinAddr: 0x100012910, symSize: 0x28 }
  - { offsetInCU: 0x1F454, offset: 0x1F454, size: 0x8, addend: 0x0, symName: __ZNSt3__122__allocator_destructorINS_9allocatorIyEEEclB7v160006EPy, symObjAddr: 0xE6A8, symBinAddr: 0x100012938, symSize: 0x34 }
  - { offsetInCU: 0x1F488, offset: 0x1F488, size: 0x8, addend: 0x0, symName: __ZNSt3__122__compressed_pair_elemINS_22__allocator_destructorINS_9allocatorIyEEEELi1ELb0EE5__getB7v160006Ev, symObjAddr: 0xE6DC, symBinAddr: 0x10001296C, symSize: 0x14 }
  - { offsetInCU: 0x1F4AE, offset: 0x1F4AE, size: 0x8, addend: 0x0, symName: __ZNSt3__114__split_bufferIPyRNS_9allocatorIS1_EEED2Ev, symObjAddr: 0xE6F0, symBinAddr: 0x100012980, symSize: 0x8C }
  - { offsetInCU: 0x1F4DA, offset: 0x1F4DA, size: 0x8, addend: 0x0, symName: __ZNSt3__114__split_bufferIPyRNS_9allocatorIS1_EEE5clearB7v160006Ev, symObjAddr: 0xE77C, symBinAddr: 0x100012A0C, symSize: 0x28 }
  - { offsetInCU: 0x1F500, offset: 0x1F500, size: 0x8, addend: 0x0, symName: __ZNKSt3__114__split_bufferIPyRNS_9allocatorIS1_EEE8capacityB7v160006Ev, symObjAddr: 0xE7A4, symBinAddr: 0x100012A34, symSize: 0x40 }
  - { offsetInCU: 0x1F526, offset: 0x1F526, size: 0x8, addend: 0x0, symName: __ZNSt3__114__split_bufferIPyRNS_9allocatorIS1_EEE17__destruct_at_endB7v160006EPS1_, symObjAddr: 0xE7E4, symBinAddr: 0x100012A74, symSize: 0x2C }
  - { offsetInCU: 0x1F55A, offset: 0x1F55A, size: 0x8, addend: 0x0, symName: __ZNSt3__114__split_bufferIPyRNS_9allocatorIS1_EEE17__destruct_at_endB7v160006EPS1_NS_17integral_constantIbLb0EEE, symObjAddr: 0xE810, symBinAddr: 0x100012AA0, symSize: 0x80 }
  - { offsetInCU: 0x1F59A, offset: 0x1F59A, size: 0x8, addend: 0x0, symName: __ZNKSt3__114__split_bufferIPyRNS_9allocatorIS1_EEE9__end_capB7v160006Ev, symObjAddr: 0xE890, symBinAddr: 0x100012B20, symSize: 0x28 }
  - { offsetInCU: 0x1F5C0, offset: 0x1F5C0, size: 0x8, addend: 0x0, symName: __ZNKSt3__117__compressed_pairIPPyRNS_9allocatorIS1_EEE5firstB7v160006Ev, symObjAddr: 0xE8B8, symBinAddr: 0x100012B48, symSize: 0x24 }
  - { offsetInCU: 0x1F5E6, offset: 0x1F5E6, size: 0x8, addend: 0x0, symName: __ZNSt3__19allocatorIyE9constructB7v160006IyJyEEEvPT_DpOT0_, symObjAddr: 0xE8DC, symBinAddr: 0x100012B6C, symSize: 0x28 }
  - { offsetInCU: 0x1F63C, offset: 0x1F63C, size: 0x8, addend: 0x0, symName: __ZNSt3__16vectorI10MemoryItemNS_9allocatorIS1_EEE19__copy_assign_allocB7v160006ERKS4_, symObjAddr: 0xE904, symBinAddr: 0x100012B94, symSize: 0x2C }
  - { offsetInCU: 0x1F671, offset: 0x1F671, size: 0x8, addend: 0x0, symName: __ZNSt3__16vectorI10MemoryItemNS_9allocatorIS1_EEE6assignIPS1_Li0EEEvT_S7_, symObjAddr: 0xE930, symBinAddr: 0x100012BC0, symSize: 0x17C }
  - { offsetInCU: 0x1F711, offset: 0x1F711, size: 0x8, addend: 0x0, symName: __ZNSt3__16vectorI10MemoryItemNS_9allocatorIS1_EEE19__copy_assign_allocB7v160006ERKS4_NS_17integral_constantIbLb0EEE, symObjAddr: 0xEAAC, symBinAddr: 0x100012D3C, symSize: 0x14 }
  - { offsetInCU: 0x1F74D, offset: 0x1F74D, size: 0x8, addend: 0x0, symName: __ZNSt3__16vectorI10MemoryItemNS_9allocatorIS1_EEE18__construct_at_endIPS1_Li0EEEvT_S7_m, symObjAddr: 0xEB7C, symBinAddr: 0x100012E0C, symSize: 0x8C }
  - { offsetInCU: 0x1F7C0, offset: 0x1F7C0, size: 0x8, addend: 0x0, symName: __ZNSt3__16vectorI10MemoryItemNS_9allocatorIS1_EEE17__destruct_at_endB7v160006EPS1_, symObjAddr: 0xEC08, symBinAddr: 0x100012E98, symSize: 0x60 }
  - { offsetInCU: 0x1F804, offset: 0x1F804, size: 0x8, addend: 0x0, symName: __ZNSt3__16vectorI10MemoryItemNS_9allocatorIS1_EEE13__vdeallocateEv, symObjAddr: 0xEC68, symBinAddr: 0x100012EF8, symSize: 0x8C }
  - { offsetInCU: 0x1F82C, offset: 0x1F82C, size: 0x8, addend: 0x0, symName: __ZNSt3__16vectorI10MemoryItemNS_9allocatorIS1_EEE11__vallocateB7v160006Em, symObjAddr: 0xECF4, symBinAddr: 0x100012F84, symSize: 0xB4 }
  - { offsetInCU: 0x1F870, offset: 0x1F870, size: 0x8, addend: 0x0, symName: __ZNKSt3__16vectorI10MemoryItemNS_9allocatorIS1_EEE11__recommendB7v160006Em, symObjAddr: 0xEDA8, symBinAddr: 0x100013038, symSize: 0xB4 }
  - { offsetInCU: 0x1F8E8, offset: 0x1F8E8, size: 0x8, addend: 0x0, symName: __ZNKSt3__114__copy_trivialclB7v160006I10MemoryItemS2_Li0EEENS_4pairIPT_PT0_EES5_S5_S7_, symObjAddr: 0xF074, symBinAddr: 0x100013304, symSize: 0x48 }
  - { offsetInCU: 0x1F955, offset: 0x1F955, size: 0x8, addend: 0x0, symName: __ZNSt3__14pairIP10MemoryItemS2_EC1B7v160006IRS2_S2_LPv0EEEOT_OT0_, symObjAddr: 0xF244, symBinAddr: 0x1000134D4, symSize: 0x3C }
  - { offsetInCU: 0x1F9B3, offset: 0x1F9B3, size: 0x8, addend: 0x0, symName: __ZNSt3__14pairIP10MemoryItemS2_EC2B7v160006IRS2_S2_LPv0EEEOT_OT0_, symObjAddr: 0xF280, symBinAddr: 0x100013510, symSize: 0x34 }
  - { offsetInCU: 0x1FA11, offset: 0x1FA11, size: 0x8, addend: 0x0, symName: __ZNSt3__118__unwrap_iter_implIP10MemoryItemLb1EE8__unwrapB7v160006ES2_, symObjAddr: 0xF2B4, symBinAddr: 0x100013544, symSize: 0x24 }
  - { offsetInCU: 0x1FA34, offset: 0x1FA34, size: 0x8, addend: 0x0, symName: __ZNSt3__14pairIP10MemoryItemS2_EC1B7v160006IS2_S2_LPv0EEEOT_OT0_, symObjAddr: 0xF2D8, symBinAddr: 0x100013568, symSize: 0x3C }
  - { offsetInCU: 0x1FA92, offset: 0x1FA92, size: 0x8, addend: 0x0, symName: __ZNSt3__14pairIP10MemoryItemS2_EC2B7v160006IS2_S2_LPv0EEEOT_OT0_, symObjAddr: 0xF314, symBinAddr: 0x1000135A4, symSize: 0x34 }
  - { offsetInCU: 0x1FAF0, offset: 0x1FAF0, size: 0x8, addend: 0x0, symName: __ZNSt3__118__unwrap_iter_implIP10MemoryItemLb1EE8__rewrapB7v160006ES2_S2_, symObjAddr: 0xF348, symBinAddr: 0x1000135D8, symSize: 0x58 }
  - { offsetInCU: 0x1FB3A, offset: 0x1FB3A, size: 0x8, addend: 0x0, symName: __ZNSt3__16vectorI10MemoryItemNS_9allocatorIS1_EEE21_ConstructTransactionC1B7v160006ERS4_m, symObjAddr: 0xF3A0, symBinAddr: 0x100013630, symSize: 0x3C }
  - { offsetInCU: 0x1FB82, offset: 0x1FB82, size: 0x8, addend: 0x0, symName: __ZNSt3__16vectorI10MemoryItemNS_9allocatorIS1_EEE21_ConstructTransactionD1B7v160006Ev, symObjAddr: 0xF4D0, symBinAddr: 0x100013760, symSize: 0x2C }
  - { offsetInCU: 0x1FBAC, offset: 0x1FBAC, size: 0x8, addend: 0x0, symName: __ZNSt3__16vectorI10MemoryItemNS_9allocatorIS1_EEE21_ConstructTransactionC2B7v160006ERS4_m, symObjAddr: 0xF4FC, symBinAddr: 0x10001378C, symSize: 0x4C }
  - { offsetInCU: 0x1FBF4, offset: 0x1FBF4, size: 0x8, addend: 0x0, symName: __ZNSt3__129_AllocatorDestroyRangeReverseINS_9allocatorI10MemoryItemEEPS2_EC1B7v160006ERS3_RS4_S7_, symObjAddr: 0xF594, symBinAddr: 0x100013824, symSize: 0x44 }
  - { offsetInCU: 0x1FC4B, offset: 0x1FC4B, size: 0x8, addend: 0x0, symName: __ZNSt3__116allocator_traitsINS_9allocatorI10MemoryItemEEE9constructB7v160006IS2_JRS2_EvEEvRS3_PT_DpOT0_, symObjAddr: 0xF5D8, symBinAddr: 0x100013868, symSize: 0x34 }
  - { offsetInCU: 0x1FCA2, offset: 0x1FCA2, size: 0x8, addend: 0x0, symName: __ZNSt3__128__exception_guard_exceptionsINS_29_AllocatorDestroyRangeReverseINS_9allocatorI10MemoryItemEEPS3_EEE10__completeB7v160006Ev, symObjAddr: 0xF60C, symBinAddr: 0x10001389C, symSize: 0x1C }
  - { offsetInCU: 0x1FCC8, offset: 0x1FCC8, size: 0x8, addend: 0x0, symName: __ZNSt3__128__exception_guard_exceptionsINS_29_AllocatorDestroyRangeReverseINS_9allocatorI10MemoryItemEEPS3_EEED1B7v160006Ev, symObjAddr: 0xF628, symBinAddr: 0x1000138B8, symSize: 0x2C }
  - { offsetInCU: 0x1FCF2, offset: 0x1FCF2, size: 0x8, addend: 0x0, symName: __ZNSt3__128__exception_guard_exceptionsINS_29_AllocatorDestroyRangeReverseINS_9allocatorI10MemoryItemEEPS3_EEEC1B7v160006ES6_, symObjAddr: 0xF654, symBinAddr: 0x1000138E4, symSize: 0x34 }
  - { offsetInCU: 0x1FD2B, offset: 0x1FD2B, size: 0x8, addend: 0x0, symName: __ZNSt3__128__exception_guard_exceptionsINS_29_AllocatorDestroyRangeReverseINS_9allocatorI10MemoryItemEEPS3_EEEC2B7v160006ES6_, symObjAddr: 0xF688, symBinAddr: 0x100013918, symSize: 0x30 }
  - { offsetInCU: 0x1FD64, offset: 0x1FD64, size: 0x8, addend: 0x0, symName: __ZNSt3__129_AllocatorDestroyRangeReverseINS_9allocatorI10MemoryItemEEPS2_EC2B7v160006ERS3_RS4_S7_, symObjAddr: 0xF6B8, symBinAddr: 0x100013948, symSize: 0x38 }
  - { offsetInCU: 0x1FDBB, offset: 0x1FDBB, size: 0x8, addend: 0x0, symName: __ZNSt3__19allocatorI10MemoryItemE9constructB7v160006IS1_JRS1_EEEvPT_DpOT0_, symObjAddr: 0xF6F0, symBinAddr: 0x100013980, symSize: 0x30 }
  - { offsetInCU: 0x1FE11, offset: 0x1FE11, size: 0x8, addend: 0x0, symName: __ZNSt3__128__exception_guard_exceptionsINS_29_AllocatorDestroyRangeReverseINS_9allocatorI10MemoryItemEEPS3_EEED2B7v160006Ev, symObjAddr: 0xF720, symBinAddr: 0x1000139B0, symSize: 0x50 }
  - { offsetInCU: 0x1FE3B, offset: 0x1FE3B, size: 0x8, addend: 0x0, symName: __ZNKSt3__129_AllocatorDestroyRangeReverseINS_9allocatorI10MemoryItemEEPS2_EclB7v160006Ev, symObjAddr: 0xF770, symBinAddr: 0x100013A00, symSize: 0x68 }
  - { offsetInCU: 0x1FE61, offset: 0x1FE61, size: 0x8, addend: 0x0, symName: __ZNSt3__116reverse_iteratorIP10MemoryItemEC1B7v160006ES2_, symObjAddr: 0xF848, symBinAddr: 0x100013AD8, symSize: 0x34 }
  - { offsetInCU: 0x1FE99, offset: 0x1FE99, size: 0x8, addend: 0x0, symName: __ZNSt3__116reverse_iteratorIP10MemoryItemEppB7v160006Ev, symObjAddr: 0xF8E8, symBinAddr: 0x100013B78, symSize: 0x20 }
  - { offsetInCU: 0x1FEBF, offset: 0x1FEBF, size: 0x8, addend: 0x0, symName: __ZNKSt3__116reverse_iteratorIP10MemoryItemE4baseB7v160006Ev, symObjAddr: 0xF908, symBinAddr: 0x100013B98, symSize: 0x18 }
  - { offsetInCU: 0x1FEEA, offset: 0x1FEEA, size: 0x8, addend: 0x0, symName: __ZNSt3__119__to_address_helperINS_16reverse_iteratorIP10MemoryItemEEvE6__callB7v160006ERKS4_, symObjAddr: 0xF920, symBinAddr: 0x100013BB0, symSize: 0x38 }
  - { offsetInCU: 0x1FF0D, offset: 0x1FF0D, size: 0x8, addend: 0x0, symName: __ZNKSt3__116reverse_iteratorIP10MemoryItemEptB7v160006Ev, symObjAddr: 0xF958, symBinAddr: 0x100013BE8, symSize: 0x24 }
  - { offsetInCU: 0x1FF33, offset: 0x1FF33, size: 0x8, addend: 0x0, symName: __ZNKSt3__116reverse_iteratorIP10MemoryItemEdeB7v160006Ev, symObjAddr: 0xF97C, symBinAddr: 0x100013C0C, symSize: 0x28 }
  - { offsetInCU: 0x1FF67, offset: 0x1FF67, size: 0x8, addend: 0x0, symName: __ZNSt3__116reverse_iteratorIP10MemoryItemEC2B7v160006ES2_, symObjAddr: 0xF9A4, symBinAddr: 0x100013C34, symSize: 0x28 }
  - { offsetInCU: 0x1FF9F, offset: 0x1FF9F, size: 0x8, addend: 0x0, symName: __ZNSt3__16vectorI10MemoryItemNS_9allocatorIS1_EEE21_ConstructTransactionD2B7v160006Ev, symObjAddr: 0xF9CC, symBinAddr: 0x100013C5C, symSize: 0x20 }
  - { offsetInCU: 0x1FFC9, offset: 0x1FFC9, size: 0x8, addend: 0x0, symName: __ZNSt3__16vectorI10MemoryItemNS_9allocatorIS1_EEE27__invalidate_iterators_pastB7v160006EPS1_, symObjAddr: 0xF9EC, symBinAddr: 0x100013C7C, symSize: 0x14 }
  - { offsetInCU: 0x20000, offset: 0x20000, size: 0x8, addend: 0x0, symName: __ZNKSt3__16vectorI10MemoryItemNS_9allocatorIS1_EEE17__annotate_shrinkB7v160006Em, symObjAddr: 0xFA00, symBinAddr: 0x100013C90, symSize: 0xD0 }
  - { offsetInCU: 0x20035, offset: 0x20035, size: 0x8, addend: 0x0, symName: __ZNSt3__16vectorI10MemoryItemNS_9allocatorIS1_EEE5clearB7v160006Ev, symObjAddr: 0xFAD0, symBinAddr: 0x100013D60, symSize: 0x54 }
  - { offsetInCU: 0x2006A, offset: 0x2006A, size: 0x8, addend: 0x0, symName: __ZNSt3__16vectorI10MemoryItemNS_9allocatorIS1_EEE9__end_capB7v160006Ev, symObjAddr: 0xFB24, symBinAddr: 0x100013DB4, symSize: 0x28 }
  - { offsetInCU: 0x20090, offset: 0x20090, size: 0x8, addend: 0x0, symName: __ZNSt3__117__compressed_pairIP10MemoryItemNS_9allocatorIS1_EEE5firstB7v160006Ev, symObjAddr: 0xFB4C, symBinAddr: 0x100013DDC, symSize: 0x24 }
  - { offsetInCU: 0x200B6, offset: 0x200B6, size: 0x8, addend: 0x0, symName: __ZNSt3__122__compressed_pair_elemIP10MemoryItemLi0ELb0EE5__getB7v160006Ev, symObjAddr: 0xFB70, symBinAddr: 0x100013E00, symSize: 0x14 }
  - { offsetInCU: 0x200DC, offset: 0x200DC, size: 0x8, addend: 0x0, symName: __ZNKSt3__16vectorI10MemoryItemNS_9allocatorIS1_EEE8max_sizeEv, symObjAddr: 0xFB84, symBinAddr: 0x100013E14, symSize: 0x60 }
  - { offsetInCU: 0x20104, offset: 0x20104, size: 0x8, addend: 0x0, symName: __ZNKSt3__16vectorI10MemoryItemNS_9allocatorIS1_EEE20__throw_length_errorB7v160006Ev, symObjAddr: 0xFBE4, symBinAddr: 0x100013E74, symSize: 0x1C }
  - { offsetInCU: 0x2012A, offset: 0x2012A, size: 0x8, addend: 0x0, symName: __ZNKSt3__16vectorI10MemoryItemNS_9allocatorIS1_EEE14__annotate_newB7v160006Em, symObjAddr: 0xFC40, symBinAddr: 0x100013ED0, symSize: 0xC8 }
  - { offsetInCU: 0x20169, offset: 0x20169, size: 0x8, addend: 0x0, symName: __ZNSt3__116allocator_traitsINS_9allocatorI10MemoryItemEEE8max_sizeB7v160006IS3_vEEmRKS3_, symObjAddr: 0xFD08, symBinAddr: 0x100013F98, symSize: 0x24 }
  - { offsetInCU: 0x20197, offset: 0x20197, size: 0x8, addend: 0x0, symName: __ZNKSt3__16vectorI10MemoryItemNS_9allocatorIS1_EEE7__allocB7v160006Ev, symObjAddr: 0xFD2C, symBinAddr: 0x100013FBC, symSize: 0x28 }
  - { offsetInCU: 0x201BD, offset: 0x201BD, size: 0x8, addend: 0x0, symName: __ZNKSt3__19allocatorI10MemoryItemE8max_sizeB7v160006Ev, symObjAddr: 0xFD54, symBinAddr: 0x100013FE4, symSize: 0x18 }
  - { offsetInCU: 0x201E3, offset: 0x201E3, size: 0x8, addend: 0x0, symName: __ZNKSt3__117__compressed_pairIP10MemoryItemNS_9allocatorIS1_EEE6secondB7v160006Ev, symObjAddr: 0xFD6C, symBinAddr: 0x100013FFC, symSize: 0x24 }
  - { offsetInCU: 0x20209, offset: 0x20209, size: 0x8, addend: 0x0, symName: __ZNKSt3__122__compressed_pair_elemINS_9allocatorI10MemoryItemEELi1ELb1EE5__getB7v160006Ev, symObjAddr: 0xFD90, symBinAddr: 0x100014020, symSize: 0x14 }
  - { offsetInCU: 0x2022F, offset: 0x2022F, size: 0x8, addend: 0x0, symName: __ZNSt3__19allocatorI10MemoryItemE8allocateB7v160006Em, symObjAddr: 0xFDA4, symBinAddr: 0x100014034, symSize: 0x5C }
  - { offsetInCU: 0x20263, offset: 0x20263, size: 0x8, addend: 0x0, symName: __ZNSt3__16vectorI10MemoryItemNS_9allocatorIS1_EEEC2ERKS4_, symObjAddr: 0xFE00, symBinAddr: 0x100014090, symSize: 0x110 }
  - { offsetInCU: 0x202C2, offset: 0x202C2, size: 0x8, addend: 0x0, symName: __ZNSt3__116allocator_traitsINS_9allocatorI10MemoryItemEEE37select_on_container_copy_constructionB7v160006IS3_vvEES3_RKS3_, symObjAddr: 0xFF10, symBinAddr: 0x1000141A0, symSize: 0x10 }
  - { offsetInCU: 0x202F6, offset: 0x202F6, size: 0x8, addend: 0x0, symName: __ZNSt3__117__compressed_pairIP10MemoryItemNS_9allocatorIS1_EEEC1B7v160006IDnS4_EEOT_OT0_, symObjAddr: 0xFF20, symBinAddr: 0x1000141B0, symSize: 0x3C }
  - { offsetInCU: 0x2034E, offset: 0x2034E, size: 0x8, addend: 0x0, symName: __ZNSt3__128__exception_guard_exceptionsINS_6vectorI10MemoryItemNS_9allocatorIS2_EEE16__destroy_vectorEE10__completeB7v160006Ev, symObjAddr: 0xFF9C, symBinAddr: 0x10001422C, symSize: 0x1C }
  - { offsetInCU: 0x20374, offset: 0x20374, size: 0x8, addend: 0x0, symName: __ZNSt3__128__exception_guard_exceptionsINS_6vectorI10MemoryItemNS_9allocatorIS2_EEE16__destroy_vectorEED1B7v160006Ev, symObjAddr: 0xFFB8, symBinAddr: 0x100014248, symSize: 0x2C }
  - { offsetInCU: 0x2039E, offset: 0x2039E, size: 0x8, addend: 0x0, symName: __ZNSt3__117__compressed_pairIP10MemoryItemNS_9allocatorIS1_EEEC2B7v160006IDnS4_EEOT_OT0_, symObjAddr: 0xFFE4, symBinAddr: 0x100014274, symSize: 0x44 }
  - { offsetInCU: 0x203F6, offset: 0x203F6, size: 0x8, addend: 0x0, symName: __ZNSt3__122__compressed_pair_elemINS_9allocatorI10MemoryItemEELi1ELb1EEC2B7v160006IS3_vEEOT_, symObjAddr: 0x10028, symBinAddr: 0x1000142B8, symSize: 0x18 }
  - { offsetInCU: 0x20438, offset: 0x20438, size: 0x8, addend: 0x0, symName: __ZNSt3__128__exception_guard_exceptionsINS_6vectorI10MemoryItemNS_9allocatorIS2_EEE16__destroy_vectorEEC1B7v160006ES6_, symObjAddr: 0x10040, symBinAddr: 0x1000142D0, symSize: 0x34 }
  - { offsetInCU: 0x20470, offset: 0x20470, size: 0x8, addend: 0x0, symName: __ZNSt3__128__exception_guard_exceptionsINS_6vectorI10MemoryItemNS_9allocatorIS2_EEE16__destroy_vectorEEC2B7v160006ES6_, symObjAddr: 0x10074, symBinAddr: 0x100014304, symSize: 0x24 }
  - { offsetInCU: 0x204A8, offset: 0x204A8, size: 0x8, addend: 0x0, symName: __ZNSt3__128__exception_guard_exceptionsINS_6vectorI10MemoryItemNS_9allocatorIS2_EEE16__destroy_vectorEED2B7v160006Ev, symObjAddr: 0x10098, symBinAddr: 0x100014328, symSize: 0x50 }
  - { offsetInCU: 0x204D2, offset: 0x204D2, size: 0x8, addend: 0x0, symName: __ZNSt3__116allocator_traitsINS_9allocatorIyEEE9constructB7v160006IyJRKyEvEEvRS2_PT_DpOT0_, symObjAddr: 0x100E8, symBinAddr: 0x100014378, symSize: 0x34 }
  - { offsetInCU: 0x20529, offset: 0x20529, size: 0x8, addend: 0x0, symName: __ZNSt3__19allocatorIyE9constructB7v160006IyJRKyEEEvPT_DpOT0_, symObjAddr: 0x1011C, symBinAddr: 0x1000143AC, symSize: 0x28 }
  - { offsetInCU: 0x2057F, offset: 0x2057F, size: 0x8, addend: 0x0, symName: __ZNSt3__15dequeIyNS_9allocatorIyEEE26__maybe_remove_front_spareB7v160006Eb, symObjAddr: 0x10158, symBinAddr: 0x1000143E8, symSize: 0xDC }
  - { offsetInCU: 0x205B4, offset: 0x205B4, size: 0x8, addend: 0x0, symName: __ZNKSt3__15dequeIyNS_9allocatorIyEEE20__front_spare_blocksB7v160006Ev, symObjAddr: 0x10234, symBinAddr: 0x1000144C4, symSize: 0x2C }
  - { offsetInCU: 0x205DA, offset: 0x205DA, size: 0x8, addend: 0x0, symName: __ZNSt3__16vectorI10MemoryItemNS_9allocatorIS1_EEE11__make_iterB7v160006EPS1_, symObjAddr: 0x10260, symBinAddr: 0x1000144F0, symSize: 0x34 }
  - { offsetInCU: 0x2060F, offset: 0x2060F, size: 0x8, addend: 0x0, symName: __ZNSt3__111__wrap_iterIP10MemoryItemEC1B7v160006EPKvS2_, symObjAddr: 0x10294, symBinAddr: 0x100014524, symSize: 0x3C }
  - { offsetInCU: 0x20655, offset: 0x20655, size: 0x8, addend: 0x0, symName: __ZNSt3__111__wrap_iterIP10MemoryItemEC2B7v160006EPKvS2_, symObjAddr: 0x102D0, symBinAddr: 0x100014560, symSize: 0x24 }
  - { offsetInCU: 0x2069B, offset: 0x2069B, size: 0x8, addend: 0x0, symName: __ZNSt3__16vectorI10MemoryItemNS_9allocatorIS1_EEE22__construct_one_at_endB7v160006IJRKS1_EEEvDpOT_, symObjAddr: 0x102F4, symBinAddr: 0x100014584, symSize: 0x90 }
  - { offsetInCU: 0x206EA, offset: 0x206EA, size: 0x8, addend: 0x0, symName: __ZNSt3__16vectorI10MemoryItemNS_9allocatorIS1_EEE21__push_back_slow_pathIRKS1_EEvOT_, symObjAddr: 0x10384, symBinAddr: 0x100014614, symSize: 0xD8 }
  - { offsetInCU: 0x20748, offset: 0x20748, size: 0x8, addend: 0x0, symName: __ZNSt3__116allocator_traitsINS_9allocatorI10MemoryItemEEE9constructB7v160006IS2_JRKS2_EvEEvRS3_PT_DpOT0_, symObjAddr: 0x1045C, symBinAddr: 0x1000146EC, symSize: 0x34 }
  - { offsetInCU: 0x2079F, offset: 0x2079F, size: 0x8, addend: 0x0, symName: __ZNSt3__19allocatorI10MemoryItemE9constructB7v160006IS1_JRKS1_EEEvPT_DpOT0_, symObjAddr: 0x10490, symBinAddr: 0x100014720, symSize: 0x30 }
  - { offsetInCU: 0x207F5, offset: 0x207F5, size: 0x8, addend: 0x0, symName: __ZNSt3__114__split_bufferI10MemoryItemRNS_9allocatorIS1_EEEC1EmmS4_, symObjAddr: 0x104C0, symBinAddr: 0x100014750, symSize: 0x44 }
  - { offsetInCU: 0x2084B, offset: 0x2084B, size: 0x8, addend: 0x0, symName: __ZNSt3__114__split_bufferI10MemoryItemRNS_9allocatorIS1_EEED1Ev, symObjAddr: 0x1061C, symBinAddr: 0x1000148AC, symSize: 0x2C }
  - { offsetInCU: 0x20877, offset: 0x20877, size: 0x8, addend: 0x0, symName: __ZNSt3__114__split_bufferI10MemoryItemRNS_9allocatorIS1_EEEC2EmmS4_, symObjAddr: 0x10648, symBinAddr: 0x1000148D8, symSize: 0xE0 }
  - { offsetInCU: 0x208EB, offset: 0x208EB, size: 0x8, addend: 0x0, symName: __ZNSt3__117__compressed_pairIP10MemoryItemRNS_9allocatorIS1_EEEC1B7v160006IDnS5_EEOT_OT0_, symObjAddr: 0x10728, symBinAddr: 0x1000149B8, symSize: 0x3C }
  - { offsetInCU: 0x20943, offset: 0x20943, size: 0x8, addend: 0x0, symName: __ZNSt3__114__split_bufferI10MemoryItemRNS_9allocatorIS1_EEE7__allocB7v160006Ev, symObjAddr: 0x10764, symBinAddr: 0x1000149F4, symSize: 0x28 }
  - { offsetInCU: 0x20969, offset: 0x20969, size: 0x8, addend: 0x0, symName: __ZNSt3__114__split_bufferI10MemoryItemRNS_9allocatorIS1_EEE9__end_capB7v160006Ev, symObjAddr: 0x1078C, symBinAddr: 0x100014A1C, symSize: 0x28 }
  - { offsetInCU: 0x2098F, offset: 0x2098F, size: 0x8, addend: 0x0, symName: __ZNSt3__117__compressed_pairIP10MemoryItemRNS_9allocatorIS1_EEEC2B7v160006IDnS5_EEOT_OT0_, symObjAddr: 0x107B4, symBinAddr: 0x100014A44, symSize: 0x48 }
  - { offsetInCU: 0x209E7, offset: 0x209E7, size: 0x8, addend: 0x0, symName: __ZNSt3__122__compressed_pair_elemIRNS_9allocatorI10MemoryItemEELi1ELb0EEC2B7v160006IS4_vEEOT_, symObjAddr: 0x107FC, symBinAddr: 0x100014A8C, symSize: 0x20 }
  - { offsetInCU: 0x20A29, offset: 0x20A29, size: 0x8, addend: 0x0, symName: __ZNSt3__117__compressed_pairIP10MemoryItemRNS_9allocatorIS1_EEE6secondB7v160006Ev, symObjAddr: 0x1081C, symBinAddr: 0x100014AAC, symSize: 0x28 }
  - { offsetInCU: 0x20A4F, offset: 0x20A4F, size: 0x8, addend: 0x0, symName: __ZNSt3__122__compressed_pair_elemIRNS_9allocatorI10MemoryItemEELi1ELb0EE5__getB7v160006Ev, symObjAddr: 0x10844, symBinAddr: 0x100014AD4, symSize: 0x18 }
  - { offsetInCU: 0x20A75, offset: 0x20A75, size: 0x8, addend: 0x0, symName: __ZNSt3__117__compressed_pairIP10MemoryItemRNS_9allocatorIS1_EEE5firstB7v160006Ev, symObjAddr: 0x1085C, symBinAddr: 0x100014AEC, symSize: 0x24 }
  - { offsetInCU: 0x20AB4, offset: 0x20AB4, size: 0x8, addend: 0x0, symName: __ZNKSt3__111__move_loopINS_17_ClassicAlgPolicyEEclB7v160006INS_16reverse_iteratorIP10MemoryItemEES7_S7_EENS_4pairIT_T1_EES9_T0_SA_, symObjAddr: 0x10C24, symBinAddr: 0x100014EB4, symSize: 0xA8 }
  - { offsetInCU: 0x20B24, offset: 0x20B24, size: 0x8, addend: 0x0, symName: __ZNSt3__18_IterOpsINS_17_ClassicAlgPolicyEE11__iter_moveB7v160006IRNS_16reverse_iteratorIP10MemoryItemEEEENS_9enable_ifIXsr12is_referenceIDTdeclsr3stdE7declvalIRT_EEEEE5valueEDTclsr3stdE4movedeclsr3stdE7declvalISB_EEEEE4typeEOSA_, symObjAddr: 0x10E18, symBinAddr: 0x1000150A8, symSize: 0x28 }
  - { offsetInCU: 0x20B50, offset: 0x20B50, size: 0x8, addend: 0x0, symName: __ZNSt3__18_IterOpsINS_17_ClassicAlgPolicyEE25__validate_iter_referenceB7v160006IRNS_16reverse_iteratorIP10MemoryItemEEEEvv, symObjAddr: 0x10E40, symBinAddr: 0x1000150D0, symSize: 0x4 }
  - { offsetInCU: 0x20B6E, offset: 0x20B6E, size: 0x8, addend: 0x0, symName: __ZNSt3__118__unwrap_iter_implINS_16reverse_iteratorIP10MemoryItemEELb0EE8__unwrapB7v160006ES4_, symObjAddr: 0x10E44, symBinAddr: 0x1000150D4, symSize: 0x24 }
  - { offsetInCU: 0x20B96, offset: 0x20B96, size: 0x8, addend: 0x0, symName: __ZNSt3__14pairINS_16reverse_iteratorIP10MemoryItemEES4_EC1B7v160006IS4_S4_LPv0EEEOT_OT0_, symObjAddr: 0x10E68, symBinAddr: 0x1000150F8, symSize: 0x3C }
  - { offsetInCU: 0x20BF4, offset: 0x20BF4, size: 0x8, addend: 0x0, symName: __ZNSt3__14pairINS_16reverse_iteratorIP10MemoryItemEES4_EC2B7v160006IS4_S4_LPv0EEEOT_OT0_, symObjAddr: 0x10EA4, symBinAddr: 0x100015134, symSize: 0x34 }
  - { offsetInCU: 0x20C52, offset: 0x20C52, size: 0x8, addend: 0x0, symName: __ZNSt3__118__unwrap_iter_implINS_16reverse_iteratorIP10MemoryItemEELb0EE8__rewrapB7v160006ES4_S4_, symObjAddr: 0x10ED8, symBinAddr: 0x100015168, symSize: 0x2C }
  - { offsetInCU: 0x20C7F, offset: 0x20C7F, size: 0x8, addend: 0x0, symName: __ZNSt3__114__split_bufferI10MemoryItemRNS_9allocatorIS1_EEED2Ev, symObjAddr: 0x10F04, symBinAddr: 0x100015194, symSize: 0x8C }
  - { offsetInCU: 0x20CAB, offset: 0x20CAB, size: 0x8, addend: 0x0, symName: __ZNSt3__114__split_bufferI10MemoryItemRNS_9allocatorIS1_EEE5clearB7v160006Ev, symObjAddr: 0x10F90, symBinAddr: 0x100015220, symSize: 0x28 }
  - { offsetInCU: 0x20CD1, offset: 0x20CD1, size: 0x8, addend: 0x0, symName: __ZNKSt3__114__split_bufferI10MemoryItemRNS_9allocatorIS1_EEE8capacityB7v160006Ev, symObjAddr: 0x10FB8, symBinAddr: 0x100015248, symSize: 0x40 }
  - { offsetInCU: 0x20CF7, offset: 0x20CF7, size: 0x8, addend: 0x0, symName: __ZNSt3__114__split_bufferI10MemoryItemRNS_9allocatorIS1_EEE17__destruct_at_endB7v160006EPS1_, symObjAddr: 0x10FF8, symBinAddr: 0x100015288, symSize: 0x2C }
  - { offsetInCU: 0x20D2B, offset: 0x20D2B, size: 0x8, addend: 0x0, symName: __ZNSt3__114__split_bufferI10MemoryItemRNS_9allocatorIS1_EEE17__destruct_at_endB7v160006EPS1_NS_17integral_constantIbLb0EEE, symObjAddr: 0x11024, symBinAddr: 0x1000152B4, symSize: 0x80 }
  - { offsetInCU: 0x20D6B, offset: 0x20D6B, size: 0x8, addend: 0x0, symName: __ZNKSt3__114__split_bufferI10MemoryItemRNS_9allocatorIS1_EEE9__end_capB7v160006Ev, symObjAddr: 0x110A4, symBinAddr: 0x100015334, symSize: 0x28 }
  - { offsetInCU: 0x20D91, offset: 0x20D91, size: 0x8, addend: 0x0, symName: __ZNKSt3__117__compressed_pairIP10MemoryItemRNS_9allocatorIS1_EEE5firstB7v160006Ev, symObjAddr: 0x110CC, symBinAddr: 0x10001535C, symSize: 0x24 }
  - { offsetInCU: 0x20DB7, offset: 0x20DB7, size: 0x8, addend: 0x0, symName: __ZNKSt3__16vectorI10MemoryItemNS_9allocatorIS1_EEE6cbeginB7v160006Ev, symObjAddr: 0x11138, symBinAddr: 0x1000153C8, symSize: 0x2C }
  - { offsetInCU: 0x20DDD, offset: 0x20DDD, size: 0x8, addend: 0x0, symName: __ZNKSt3__111__wrap_iterIPK10MemoryItemE4baseB7v160006Ev, symObjAddr: 0x111A4, symBinAddr: 0x100015434, symSize: 0x18 }
  - { offsetInCU: 0x20E03, offset: 0x20E03, size: 0x8, addend: 0x0, symName: __ZNKSt3__16vectorI10MemoryItemNS_9allocatorIS1_EEE5beginB7v160006Ev, symObjAddr: 0x111BC, symBinAddr: 0x10001544C, symSize: 0x30 }
  - { offsetInCU: 0x20E2B, offset: 0x20E2B, size: 0x8, addend: 0x0, symName: __ZNKSt3__16vectorI10MemoryItemNS_9allocatorIS1_EEE11__make_iterB7v160006EPKS1_, symObjAddr: 0x111EC, symBinAddr: 0x10001547C, symSize: 0x34 }
  - { offsetInCU: 0x20E60, offset: 0x20E60, size: 0x8, addend: 0x0, symName: __ZNSt3__111__wrap_iterIPK10MemoryItemEC1B7v160006EPKvS3_, symObjAddr: 0x11220, symBinAddr: 0x1000154B0, symSize: 0x3C }
  - { offsetInCU: 0x20EA6, offset: 0x20EA6, size: 0x8, addend: 0x0, symName: __ZNSt3__111__wrap_iterIPK10MemoryItemEC2B7v160006EPKvS3_, symObjAddr: 0x1125C, symBinAddr: 0x1000154EC, symSize: 0x24 }
  - { offsetInCU: 0x20EEC, offset: 0x20EEC, size: 0x8, addend: 0x0, symName: __ZNKSt3__114__move_trivialclB7v160006I10MemoryItemS2_Li0EEENS_4pairIPT_PT0_EES5_S5_S7_, symObjAddr: 0x113BC, symBinAddr: 0x10001564C, symSize: 0x48 }
  - { offsetInCU: 0x20F54, offset: 0x20F54, size: 0x8, addend: 0x0, symName: __ZNSt3__16vectorI11DiskManagerNS_9allocatorIS1_EEEC2B7v160006Ev, symObjAddr: 0x11404, symBinAddr: 0x100015694, symSize: 0x58 }
  - { offsetInCU: 0x20F7E, offset: 0x20F7E, size: 0x8, addend: 0x0, symName: __ZNSt3__117__compressed_pairIP11DiskManagerNS_9allocatorIS1_EEEC1B7v160006IDnNS_18__default_init_tagEEEOT_OT0_, symObjAddr: 0x1145C, symBinAddr: 0x1000156EC, symSize: 0x3C }
  - { offsetInCU: 0x20FD6, offset: 0x20FD6, size: 0x8, addend: 0x0, symName: __ZNSt3__117__compressed_pairIP11DiskManagerNS_9allocatorIS1_EEEC2B7v160006IDnNS_18__default_init_tagEEEOT_OT0_, symObjAddr: 0x114A8, symBinAddr: 0x100015738, symSize: 0x40 }
  - { offsetInCU: 0x2102E, offset: 0x2102E, size: 0x8, addend: 0x0, symName: __ZNSt3__122__compressed_pair_elemIP11DiskManagerLi0ELb0EEC2B7v160006IDnvEEOT_, symObjAddr: 0x114E8, symBinAddr: 0x100015778, symSize: 0x1C }
  - { offsetInCU: 0x21070, offset: 0x21070, size: 0x8, addend: 0x0, symName: __ZNSt3__122__compressed_pair_elemINS_9allocatorI11DiskManagerEELi1ELb1EEC2B7v160006ENS_18__default_init_tagE, symObjAddr: 0x11504, symBinAddr: 0x100015794, symSize: 0x2C }
  - { offsetInCU: 0x210A4, offset: 0x210A4, size: 0x8, addend: 0x0, symName: __ZNSt3__19allocatorI11DiskManagerEC2B7v160006Ev, symObjAddr: 0x11530, symBinAddr: 0x1000157C0, symSize: 0x2C }
  - { offsetInCU: 0x210CE, offset: 0x210CE, size: 0x8, addend: 0x0, symName: __ZNSt3__116__non_trivial_ifILb1ENS_9allocatorI11DiskManagerEEEC2B7v160006Ev, symObjAddr: 0x1155C, symBinAddr: 0x1000157EC, symSize: 0x14 }
  - { offsetInCU: 0x210F8, offset: 0x210F8, size: 0x8, addend: 0x0, symName: __ZNSt3__111char_traitsIcE6lengthEPKc, symObjAddr: 0x1175C, symBinAddr: 0x1000159EC, symSize: 0x34 }
  - { offsetInCU: 0x21139, offset: 0x21139, size: 0x8, addend: 0x0, symName: __ZNKSt3__113basic_ostreamIcNS_11char_traitsIcEEE6sentrycvbB7v160006Ev, symObjAddr: 0x11790, symBinAddr: 0x100015A20, symSize: 0x1C }
  - { offsetInCU: 0x2115F, offset: 0x2115F, size: 0x8, addend: 0x0, symName: __ZNSt3__119ostreambuf_iteratorIcNS_11char_traitsIcEEEC1B7v160006ERNS_13basic_ostreamIcS2_EE, symObjAddr: 0x119EC, symBinAddr: 0x100015C7C, symSize: 0x34 }
  - { offsetInCU: 0x21197, offset: 0x21197, size: 0x8, addend: 0x0, symName: __ZNKSt3__18ios_base5flagsB7v160006Ev, symObjAddr: 0x11A20, symBinAddr: 0x100015CB0, symSize: 0x18 }
  - { offsetInCU: 0x211BF, offset: 0x211BF, size: 0x8, addend: 0x0, symName: __ZNKSt3__19basic_iosIcNS_11char_traitsIcEEE4fillB7v160006Ev, symObjAddr: 0x11A38, symBinAddr: 0x100015CC8, symSize: 0x64 }
  - { offsetInCU: 0x211E7, offset: 0x211E7, size: 0x8, addend: 0x0, symName: __ZNKSt3__119ostreambuf_iteratorIcNS_11char_traitsIcEEE6failedB7v160006Ev, symObjAddr: 0x11A9C, symBinAddr: 0x100015D2C, symSize: 0x24 }
  - { offsetInCU: 0x2120D, offset: 0x2120D, size: 0x8, addend: 0x0, symName: __ZNSt3__19basic_iosIcNS_11char_traitsIcEEE8setstateB7v160006Ej, symObjAddr: 0x11AC0, symBinAddr: 0x100015D50, symSize: 0x2C }
  - { offsetInCU: 0x21242, offset: 0x21242, size: 0x8, addend: 0x0, symName: __ZNKSt3__18ios_base5widthB7v160006Ev, symObjAddr: 0x11AEC, symBinAddr: 0x100015D7C, symSize: 0x18 }
  - { offsetInCU: 0x2126A, offset: 0x2126A, size: 0x8, addend: 0x0, symName: __ZNSt3__115basic_streambufIcNS_11char_traitsIcEEE5sputnB7v160006EPKcl, symObjAddr: 0x11B04, symBinAddr: 0x100015D94, symSize: 0x3C }
  - { offsetInCU: 0x212AC, offset: 0x212AC, size: 0x8, addend: 0x0, symName: __ZNSt3__112basic_stringIcNS_11char_traitsIcEENS_9allocatorIcEEEC1B7v160006Emc, symObjAddr: 0x11B40, symBinAddr: 0x100015DD0, symSize: 0x3C }
  - { offsetInCU: 0x212F4, offset: 0x212F4, size: 0x8, addend: 0x0, symName: __ZNKSt3__112basic_stringIcNS_11char_traitsIcEENS_9allocatorIcEEE4dataB7v160006Ev, symObjAddr: 0x11B7C, symBinAddr: 0x100015E0C, symSize: 0x28 }
  - { offsetInCU: 0x2131A, offset: 0x2131A, size: 0x8, addend: 0x0, symName: __ZNSt3__18ios_base5widthB7v160006El, symObjAddr: 0x11BA4, symBinAddr: 0x100015E34, symSize: 0x2C }
  - { offsetInCU: 0x21360, offset: 0x21360, size: 0x8, addend: 0x0, symName: __ZNSt3__112basic_stringIcNS_11char_traitsIcEENS_9allocatorIcEEEC2B7v160006Emc, symObjAddr: 0x11BD0, symBinAddr: 0x100015E60, symSize: 0x54 }
  - { offsetInCU: 0x213A8, offset: 0x213A8, size: 0x8, addend: 0x0, symName: __ZNSt3__117__compressed_pairINS_12basic_stringIcNS_11char_traitsIcEENS_9allocatorIcEEE5__repES5_EC1B7v160006INS_18__default_init_tagESA_EEOT_OT0_, symObjAddr: 0x11C24, symBinAddr: 0x100015EB4, symSize: 0x3C }
  - { offsetInCU: 0x21400, offset: 0x21400, size: 0x8, addend: 0x0, symName: __ZNSt3__117__compressed_pairINS_12basic_stringIcNS_11char_traitsIcEENS_9allocatorIcEEE5__repES5_EC2B7v160006INS_18__default_init_tagESA_EEOT_OT0_, symObjAddr: 0x11C70, symBinAddr: 0x100015F00, symSize: 0x3C }
  - { offsetInCU: 0x21458, offset: 0x21458, size: 0x8, addend: 0x0, symName: __ZNSt3__122__compressed_pair_elemINS_12basic_stringIcNS_11char_traitsIcEENS_9allocatorIcEEE5__repELi0ELb0EEC2B7v160006ENS_18__default_init_tagE, symObjAddr: 0x11CAC, symBinAddr: 0x100015F3C, symSize: 0x14 }
  - { offsetInCU: 0x2148C, offset: 0x2148C, size: 0x8, addend: 0x0, symName: __ZNSt3__122__compressed_pair_elemINS_9allocatorIcEELi1ELb1EEC2B7v160006ENS_18__default_init_tagE, symObjAddr: 0x11CC0, symBinAddr: 0x100015F50, symSize: 0x2C }
  - { offsetInCU: 0x214C0, offset: 0x214C0, size: 0x8, addend: 0x0, symName: __ZNSt3__19allocatorIcEC2B7v160006Ev, symObjAddr: 0x11CEC, symBinAddr: 0x100015F7C, symSize: 0x2C }
  - { offsetInCU: 0x214EA, offset: 0x214EA, size: 0x8, addend: 0x0, symName: __ZNSt3__116__non_trivial_ifILb1ENS_9allocatorIcEEEC2B7v160006Ev, symObjAddr: 0x11D18, symBinAddr: 0x100015FA8, symSize: 0x14 }
  - { offsetInCU: 0x21514, offset: 0x21514, size: 0x8, addend: 0x0, symName: __ZNKSt3__112basic_stringIcNS_11char_traitsIcEENS_9allocatorIcEEE13__get_pointerB7v160006Ev, symObjAddr: 0x11D40, symBinAddr: 0x100015FD0, symSize: 0x54 }
  - { offsetInCU: 0x2153A, offset: 0x2153A, size: 0x8, addend: 0x0, symName: __ZNKSt3__112basic_stringIcNS_11char_traitsIcEENS_9allocatorIcEEE9__is_longB7v160006Ev, symObjAddr: 0x11D94, symBinAddr: 0x100016024, symSize: 0x38 }
  - { offsetInCU: 0x21560, offset: 0x21560, size: 0x8, addend: 0x0, symName: __ZNKSt3__112basic_stringIcNS_11char_traitsIcEENS_9allocatorIcEEE18__get_long_pointerB7v160006Ev, symObjAddr: 0x11DCC, symBinAddr: 0x10001605C, symSize: 0x28 }
  - { offsetInCU: 0x21586, offset: 0x21586, size: 0x8, addend: 0x0, symName: __ZNKSt3__112basic_stringIcNS_11char_traitsIcEENS_9allocatorIcEEE19__get_short_pointerB7v160006Ev, symObjAddr: 0x11DF4, symBinAddr: 0x100016084, symSize: 0x28 }
  - { offsetInCU: 0x215AC, offset: 0x215AC, size: 0x8, addend: 0x0, symName: __ZNKSt3__117__compressed_pairINS_12basic_stringIcNS_11char_traitsIcEENS_9allocatorIcEEE5__repES5_E5firstB7v160006Ev, symObjAddr: 0x11E1C, symBinAddr: 0x1000160AC, symSize: 0x24 }
  - { offsetInCU: 0x215D2, offset: 0x215D2, size: 0x8, addend: 0x0, symName: __ZNKSt3__122__compressed_pair_elemINS_12basic_stringIcNS_11char_traitsIcEENS_9allocatorIcEEE5__repELi0ELb0EE5__getB7v160006Ev, symObjAddr: 0x11E40, symBinAddr: 0x1000160D0, symSize: 0x14 }
  - { offsetInCU: 0x215F8, offset: 0x215F8, size: 0x8, addend: 0x0, symName: __ZNSt3__114pointer_traitsIPKcE10pointer_toB7v160006ERS1_, symObjAddr: 0x11E54, symBinAddr: 0x1000160E4, symSize: 0x14 }
  - { offsetInCU: 0x2161B, offset: 0x2161B, size: 0x8, addend: 0x0, symName: __ZNSt3__119ostreambuf_iteratorIcNS_11char_traitsIcEEEC2B7v160006ERNS_13basic_ostreamIcS2_EE, symObjAddr: 0x11E68, symBinAddr: 0x1000160F8, symSize: 0x54 }
  - { offsetInCU: 0x21653, offset: 0x21653, size: 0x8, addend: 0x0, symName: __ZNKSt3__19basic_iosIcNS_11char_traitsIcEEE5rdbufB7v160006Ev, symObjAddr: 0x11EBC, symBinAddr: 0x10001614C, symSize: 0x24 }
  - { offsetInCU: 0x2167B, offset: 0x2167B, size: 0x8, addend: 0x0, symName: __ZNKSt3__18ios_base5rdbufB7v160006Ev, symObjAddr: 0x11EE0, symBinAddr: 0x100016170, symSize: 0x18 }
  - { offsetInCU: 0x216A1, offset: 0x216A1, size: 0x8, addend: 0x0, symName: __ZNSt3__111char_traitsIcE11eq_int_typeEii, symObjAddr: 0x11EF8, symBinAddr: 0x100016188, symSize: 0x28 }
  - { offsetInCU: 0x216D2, offset: 0x216D2, size: 0x8, addend: 0x0, symName: __ZNSt3__111char_traitsIcE3eofEv, symObjAddr: 0x11F20, symBinAddr: 0x1000161B0, symSize: 0x8 }
  - { offsetInCU: 0x216E6, offset: 0x216E6, size: 0x8, addend: 0x0, symName: __ZNKSt3__19basic_iosIcNS_11char_traitsIcEEE5widenB7v160006Ec, symObjAddr: 0x11F28, symBinAddr: 0x1000161B8, symSize: 0x84 }
  - { offsetInCU: 0x21754, offset: 0x21754, size: 0x8, addend: 0x0, symName: __ZNKSt3__15ctypeIcE5widenB7v160006Ec, symObjAddr: 0x11FD8, symBinAddr: 0x100016268, symSize: 0x38 }
  - { offsetInCU: 0x21789, offset: 0x21789, size: 0x8, addend: 0x0, symName: __ZNSt3__18ios_base8setstateB7v160006Ej, symObjAddr: 0x12010, symBinAddr: 0x1000162A0, symSize: 0x34 }
  - { offsetInCU: 0x217C0, offset: 0x217C0, size: 0x8, addend: 0x0, symName: __ZNKSt3__15dequeIiNS_9allocatorIiEEE6__sizeB7v160006Ev, symObjAddr: 0x12068, symBinAddr: 0x1000162F8, symSize: 0x28 }
  - { offsetInCU: 0x217E6, offset: 0x217E6, size: 0x8, addend: 0x0, symName: __ZNKSt3__117__compressed_pairImNS_9allocatorIiEEE5firstB7v160006Ev, symObjAddr: 0x12090, symBinAddr: 0x100016320, symSize: 0x24 }
  - { offsetInCU: 0x2180C, offset: 0x2180C, size: 0x8, addend: 0x0, symName: __ZNSt3__15dequeIiNS_9allocatorIiEEE13__move_assignERS3_NS_17integral_constantIbLb1EEE, symObjAddr: 0x120B4, symBinAddr: 0x100016344, symSize: 0x40 }
  - { offsetInCU: 0x2184E, offset: 0x2184E, size: 0x8, addend: 0x0, symName: __ZNSt3__15dequeIiNS_9allocatorIiEEE13shrink_to_fitEv, symObjAddr: 0x120F4, symBinAddr: 0x100016384, symSize: 0xD0 }
  - { offsetInCU: 0x21885, offset: 0x21885, size: 0x8, addend: 0x0, symName: __ZNSt3__15dequeIiNS_9allocatorIiEEE13__move_assignB7v160006ERS3_, symObjAddr: 0x121C4, symBinAddr: 0x100016454, symSize: 0x84 }
  - { offsetInCU: 0x218BA, offset: 0x218BA, size: 0x8, addend: 0x0, symName: __ZNSt3__15dequeIiNS_9allocatorIiEEE25__maybe_remove_back_spareB7v160006Eb, symObjAddr: 0x12248, symBinAddr: 0x1000164D8, symSize: 0xCC }
  - { offsetInCU: 0x218EF, offset: 0x218EF, size: 0x8, addend: 0x0, symName: __ZNSt3__114__split_bufferIPiNS_9allocatorIS1_EEE13shrink_to_fitEv, symObjAddr: 0x12314, symBinAddr: 0x1000165A4, symSize: 0x188 }
  - { offsetInCU: 0x2192C, offset: 0x2192C, size: 0x8, addend: 0x0, symName: __ZNKSt3__15dequeIiNS_9allocatorIiEEE19__back_spare_blocksB7v160006Ev, symObjAddr: 0x1249C, symBinAddr: 0x10001672C, symSize: 0x2C }
  - { offsetInCU: 0x21952, offset: 0x21952, size: 0x8, addend: 0x0, symName: __ZNSt3__114__split_bufferIPiNS_9allocatorIS1_EEEaSEOS4_, symObjAddr: 0x124C8, symBinAddr: 0x100016758, symSize: 0xBC }
  - { offsetInCU: 0x21988, offset: 0x21988, size: 0x8, addend: 0x0, symName: __ZNSt3__15dequeIiNS_9allocatorIiEEE19__move_assign_allocB7v160006ERS3_, symObjAddr: 0x12584, symBinAddr: 0x100016814, symSize: 0x2C }
  - { offsetInCU: 0x219BD, offset: 0x219BD, size: 0x8, addend: 0x0, symName: __ZNSt3__114__split_bufferIPiNS_9allocatorIS1_EEE19__move_assign_allocB7v160006ERS4_NS_17integral_constantIbLb1EEE, symObjAddr: 0x125B0, symBinAddr: 0x100016840, symSize: 0x38 }
  - { offsetInCU: 0x219FB, offset: 0x219FB, size: 0x8, addend: 0x0, symName: __ZNSt3__15dequeIiNS_9allocatorIiEEE19__move_assign_allocB7v160006ERS3_NS_17integral_constantIbLb1EEE, symObjAddr: 0x125E8, symBinAddr: 0x100016878, symSize: 0x38 }
...
